__addrMain = 0x0;

/* Symbols from CRO files */
wcslen = 0x100091;
_printf_int_dec = 0x1000b1;
_printf_charcount = 0x100125;
__aeabi_vec_ctor_nocookie_nodtor = 0x1002f5;
_printf_longlong_oct = 0x100321;
_printf_longlong_hex = 0x100399;
memcmp = 0x1004fd;
__c89vsnprintf = 0x100649;
__2snprintf = 0x100681;
_printf_str = 0x1006bd;
_printf_wctomb = 0x100711;
atoi = 0x1007cd;
mbstowcs = 0x1007e7;
wcstombs = 0x100837;
mbsinit = 0x1008a3;
mbrlen = 0x1008b5;
strncat = 0x1008d3;
wmemmove = 0x1008f7;
wcscmp = 0x100901;
wcsncmp = 0x10091d;
wmemset = 0x100945;
__aeabi_vec_dtor = 0x1009d9;
_ZN4__rw13__rw_allocateEji = 0x102861;
_ZN4__rw15__rw_deallocateEPvji = 0x1029f5;
_ZN4__rw15__rw_facet_base12_C_initfacetERKSt6locale = 0x1029fd;
_ZN4__rw15__rw_locale_impC1ERKS0_PKcj = 0x102a3d;
_ZN4__rw15__rw_locale_impC2ERKS0_PKcj = 0x102a3d;
_ZN4__rw15__rw_punct_dataIcED1Ev = 0x102af1;
_ZN4__rw15__rw_punct_dataIcED2Ev = 0x102af1;
_ZN4__rw23__rw_numpunct_impl_dataIcED1Ev = 0x102afd;
_ZN4__rw23__rw_numpunct_impl_dataIcED2Ev = 0x102afd;
_ZNKSt14__rw_exception4whatEv = 0x102bb1;
_ZNKSt14codecvt_bynameIwcSt11__mbstate_tE10do_unshiftERS0_PcS3_RS3_ = 0x102bb5;
_ZNKSt14codecvt_bynameIwcSt11__mbstate_tE11do_encodingEv = 0x102bd9;
_ZNKSt14codecvt_bynameIwcSt11__mbstate_tE13do_max_lengthEv = 0x102bf5;
_ZNKSt14codecvt_bynameIwcSt11__mbstate_tE16do_always_noconvEv = 0x102bfd;
_ZNKSt5ctypeIcE10do_tolowerEPcPKc = 0x102ead;
_ZNKSt5ctypeIcE10do_tolowerEc = 0x102edb;
_ZNKSt5ctypeIcE10do_toupperEPcPKc = 0x102efb;
_ZNKSt5ctypeIcE10do_toupperEc = 0x102f29;
_ZNKSt5ctypeIcE8do_widenEPKcS2_Pc = 0x102f49;
_ZNKSt5ctypeIcE8do_widenEc = 0x102f59;
_ZNKSt5ctypeIcE9do_narrowEPKcS2_cPc = 0x102f5d;
_ZNKSt5ctypeIcE9do_narrowEcc = 0x102f6d;
_ZNKSt7codecvtIwcSt11__mbstate_tE9do_lengthERKS0_PKcS5_j = 0x1030ad;
_ZNSt12ctype_bynameIcED0Ev = 0x1032cd;
_ZNSt12ctype_bynameIcED1Ev = 0x1032d9;
_ZNSt12ctype_bynameIcED2Ev = 0x1032d9;
_ZNSt14__rw_exceptionC1Ev = 0x103369;
_ZNSt14__rw_exceptionC2Ev = 0x103369;
_ZNSt14__rw_exceptionD0Ev = 0x10337d;
_ZNSt14__rw_exceptionD1Ev = 0x103389;
_ZNSt14__rw_exceptionD2Ev = 0x103389;
_ZNSt14codecvt_bynameIwcSt11__mbstate_tED0Ev = 0x1033a5;
_ZNSt14codecvt_bynameIwcSt11__mbstate_tED1Ev = 0x1033ad;
_ZNSt14codecvt_bynameIwcSt11__mbstate_tED2Ev = 0x1033ad;
_ZNSt14collate_bynameIcED0Ev = 0x1033af;
_ZNSt14collate_bynameIcED1Ev = 0x1033bd;
_ZNSt14collate_bynameIcED2Ev = 0x1033bd;
_ZNSt18__rw_open_cat_dataC1Ev = 0x1033d5;
_ZNSt18__rw_open_cat_dataC2Ev = 0x1033d5;
_ZNSt18__rw_open_cat_dataD1Ev = 0x1033ef;
_ZNSt18__rw_open_cat_dataD2Ev = 0x1033ef;
_ZNSt5ctypeIcED0Ev = 0x103515;
_ZNSt6locale16_C_remove_facetsEi = 0x103521;
_ZNSt6locale5facetD0Ev = 0x103575;
_ZNSt6locale5facetD1Ev = 0x10357d;
_ZNSt6locale5facetD2Ev = 0x10357d;
_ZNSt6localeC1ERKS_ = 0x10357f;
_ZNSt6localeC2ERKS_ = 0x10357f;
_ZNSt6localeC1Ev = 0x10358d;
_ZNSt6localeC2Ev = 0x10358d;
_ZNSt7collateIcED0Ev = 0x1035b1;
_ZNSt7collateIcED1Ev = 0x1035b9;
_ZNSt7collateIcED2Ev = 0x1035b9;
_ZNSt8messagesIcED0Ev = 0x1035bb;
_ZNSt8messagesIcED1Ev = 0x1035c7;
_ZNSt8messagesIcED2Ev = 0x1035c7;
_ZNSt8numpunctIcED0Ev = 0x1035d5;
_ZNSt8numpunctIcED1Ev = 0x1035e1;
_ZNSt8numpunctIcED2Ev = 0x1035e1;
_ZdlPvS_ = 0x10360b;
_ZnwjPv = 0x10360d;
__aeabi_vec_cctor_nocookie_nodtor = 0x1036b5;
__cxa_guard_release = 0x1036f9;
__cxa_pure_virtual = 0x1036fb;
_ZN4__rw16__rw_facet_makerISt5ctypeIcEE13_C_maker_funcEiPKcj = 0x103799;
_ZN4__rw18__rw_locale_vectorIPNS_15__rw_facet_baseEED1Ev = 0x1037e1;
_ZN4__rw18__rw_locale_vectorIPNS_15__rw_facet_baseEED2Ev = 0x1037e1;
_ZN4__rw18__rw_locale_vectorIPNS_8__rw_catEED1Ev = 0x1037ef;
_ZN4__rw18__rw_locale_vectorIPNS_8__rw_catEED2Ev = 0x1037ef;
_ZN4__rw18__rw_locale_vectorISsEixEj = 0x1037fd;
_ZN4__rw18__rw_locale_vectorISt18__rw_open_cat_dataE6resizeEj = 0x103805;
_ZN4__rw18__rw_locale_vectorISt18__rw_open_cat_dataED1Ev = 0x103885;
_ZN4__rw18__rw_locale_vectorISt18__rw_open_cat_dataED2Ev = 0x103885;
_ZNKSt7collateIcE10do_compareEPKcS2_S2_S2_ = 0x103899;
_ZNKSt7collateIcE12do_transformEPKcS2_ = 0x1038f7;
_ZNKSt7collateIcE7do_hashEPKcS2_ = 0x103937;
_ZNKSt8messagesIcE6do_getEiiiRKSs = 0x10397d;
_ZNKSt8messagesIcE7do_openERKSsRKSt6locale = 0x103a09;
_ZNKSt8messagesIcE8do_closeEi = 0x103a13;
_ZNKSt8numpunctIcE11do_groupingEv = 0x103a1d;
_ZNKSt8numpunctIcE11do_truenameEv = 0x103a27;
_ZNKSt8numpunctIcE12do_falsenameEv = 0x103a31;
_ZNKSt8numpunctIcE16do_decimal_pointEv = 0x103a3b;
_ZNKSt8numpunctIcE16do_thousands_sepEv = 0x103a3f;
_ZNSaIN4__rw12__string_refIcSt11char_traitsIcESaIcEEEEC1IcEERKSaIT_E = 0x103a43;
_ZNSaIN4__rw12__string_refIcSt11char_traitsIcESaIcEEEEC2IcEERKSaIT_E = 0x103a43;
_ZNSaIcEC1ERKS_ = 0x103a45;
_ZNSaIcEC2ERKS_ = 0x103a45;
_ZNSaIcEC1Ev = 0x103a47;
_ZNSaIcEC2Ev = 0x103a47;
_ZNSs11_C_allocateEjjj = 0x103a49;
_ZNSs7replaceEjjPKcjjj = 0x103a7d;
_ZNSsaSEPKc = 0x103bf9;
_ZNSt8numpunctIcE12_C_initfacetERKSt6locale = 0x103c49;
_printf_n = 0x103ccc;
_printf_percent = 0x103ccc;
_printf_p = 0x103cd4;
_printf_i = 0x103d08;
_printf_d = 0x103d10;
_printf_u = 0x103d18;
_printf_o = 0x103d20;
_printf_x = 0x103d28;
_printf_c = 0x103d64;
_printf_s = 0x103d6c;
_printf_lc = 0x103d74;
_ZN6SndSys4funcEv = 0x105f7c;
_ZN8GameWork12initGameWorkEv = 0x1063f0;
_ZN11SoundHandle13StartPreparedEv = 0x106984;
_ZN12VramAlcRange4termEv = 0x106d54;
_ZN3Grp9mergeVramEj = 0x106d7c;
_ZN12VramAlcRange5mergeEv = 0x106da8;
_ZN3Grp9splitVramEj = 0x106df4;
_ZN15MsgDataAcsrBase4initEPKv = 0x107224;
_ZN2nn2os19GetDeviceMemorySizeEv = 0x1075c8;
_ZN2nn2os22GetDeviceMemoryAddressEv = 0x1076b8;
_ZN2nn4font7ResFont14RemoveResourceEv = 0x1082cc;
_ZN3Grp11swapDispBufEj = 0x108904;
_ZN5CtrFS15unmountSaveDataEv = 0x108cec;
_ZN6Backup13isBusyCopyingEv = 0x108d60;
_ZN6Backup13writeInitDataEv = 0x108ea0;
_ZN6MemAlc8initCoreEPvj = 0x109078;
_ZN7TaskMan5entryEP4Task = 0x109610;
_ZN8GameWork14updatePlayTimeEv = 0x109a0c;
_ZnwjP10MemAlcBasePKcj = 0x10a730;
glBindFramebuffer = 0x10a754;
glBindRenderbuffer = 0x10a850;
glDeleteFramebuffers = 0x10a998;
glDeleteRenderbuffers = 0x10ab74;
glFramebufferRenderbuffer = 0x10acf8;
glGenFramebuffers = 0x10adbc;
glGenRenderbuffers = 0x10aff4;
glRenderbufferStorage = 0x10b22c;
nngxBindCmdlist = 0x10b344;
nngxBindDisplaybuffer = 0x10b4ac;
nngxCmdlistStorage = 0x10b5b4;
nngxDeleteCmdlists = 0x10b69c;
nngxDisplayEnv = 0x10b90c;
nngxGenCmdlists = 0x10bb80;
nngxGetVramStartAddr = 0x10c000;
nngxRunCmdlist = 0x10cd0c;
nngxSplitDrawCmdlist = 0x10cd84;
nngxWaitCmdlistDone = 0x10cfc0;
nngxWaitVSync = 0x10d05c;
__aeabi_ldivmod = 0x10d75c;
_ZN10MemAlcBase6GetOptEibj = 0x10d8c8;
_ZN10MessageSys7GetPathEPwPKwb = 0x10d8e4;
_ZN10MessageSysC1Ev = 0x10d9d0;
_ZN11CtrFileBase4openEPKw = 0x10da2c;
_ZN11CtrFileBase5closeEv = 0x10dabc;
_ZN11SoundHandle11DetachSoundEv = 0x10dc70;
_ZN2nn2fs3CTR6MPCore6detail14UserFileSystem11TryOpenFileEPPvPKwj = 0x10df28;
_ZN2nn2fs3CTR6MPCore6detail14UserFileSystem9CloseFileEPv = 0x10e01c;
_ZN2nn2fs6detail8FileBase7TryReadEPiPvj = 0x10e074;
_ZN2nn3err3CTR16ThrowFatalErrAllENS_6ResultEj = 0x10e978;
_ZN2nn4font7ResFont11SetResourceEPv = 0x10f6c8;
_ZN2nn4font7ResFont13SetDrawBufferEPv = 0x10f8a0;
_ZN2nn4font7ResFont17GetDrawBufferSizeEPKv = 0x10f8dc;
_ZN2nn6applet3CTR11EnableSleepEb = 0x10f9e4;
_ZN3Grp13SetClearColorEN2nn4util6Color8E = 0x1109fc;
_ZN3Grp3endEh = 0x110a10;
_ZN3Grp5beginEjj = 0x110a7c;
_ZN3Mem4CopyEPvPKvj = 0x110b24;
_ZN3Mem4FillEPvjj = 0x111364;
_ZN3Mem4FreeEPv = 0x111490;
_ZN4Prim11disableCullEv = 0x112344;
_ZN4Prim11setDrawModeE16PicaDataDrawMode = 0x11236c;
_ZN4Prim15enableDepthTestEb17PicaDataDepthTest = 0x1123b0;
_ZN4Prim15setCombConstClrEN2nn4util6Color8E = 0x1123e0;
_ZN4Prim16disableAlphaTestEv = 0x112478;
_ZN4Prim17enableStencilTestEjjh19PicaDataStencilTest17PicaDataStencilOpS1_S1_ = 0x1124a0;
_ZN4Prim8setBlendEi = 0x1125f0;
_ZN10PrimVtxBufD1Ev = 0x1126b0;
_ZN4PrimD1Ev = 0x1126c8;
_ZN5CtrFSC1Ev = 0x1126f0;
_ZN5CtrFSD1Ev = 0x112758;
_ZN6BackupC1Ev = 0x1128a8;
_ZN8GameWork13startPlayTimeEv = 0x112ce8;
_ZN8GameWork14UpdatePcStatusEP6DataPc = 0x112d9c;
_ZN8GameWork7addItemEta = 0x11317c;
_ZN8REDSPARK2Sd7RSSound11GetInstanceEv = 0x113590;
_ZN8REDSPARK2Sd7RSSound9isStandbyEi = 0x113e84;
_ZN9CellAnime4initEPKvPK12CellAnimeTexS1_hss = 0x1144e0;
_ZN9CtrJobMan4initEPvii = 0x114608;
_ZN9CtrJobMan4termEv = 0x114690;
_ZN9CtrJobManC1Ev = 0x114740;
_ZN9CtrJobManD1Ev = 0x1147c0;
_ZNK2nn2fs6detail8FileBase10TryGetSizeEPx = 0x1148d4;
_ZnajP10MemAlcBasePKcj = 0x1150c0;
glGetRenderbufferParameteriv = 0x1172bc;
nngxActiveDisplay = 0x11740c;
nngxAddVramDmaCommand = 0x11743c;
nngxGetAllocator = 0x1174b0;
nngxUpdateState = 0x117b5c;
nngxValidateState = 0x117cac;
_ZN2nn4math5ARMv612MTX34CopyAsmEPNS0_5MTX34EPKS2_ = 0x1181b0;
_ZN2nn4math5ARMv616VEC3TransformAsmEPNS0_4VEC3EPKNS0_5MTX34EPKS2_ = 0x1181e0;
_ZN2nw3lyt8DrawInfo16SetProjectionMtxERKN2nn4math5MTX44E = 0x11821c;
_ZN2nn4math5ARMv612MTX44CopyAsmEPNS0_5MTX44EPKS2_ = 0x118224;
_ZN2nn3svc13GetSystemTickEv = 0x11829c;
__aeabi_memset = 0x1182a4;
_ZN11GlobalEvent11getRegisterEP10ScriptUniti = 0x1182b4;
_Z10GetRegFlagtP11GlobalEventP10LocalEvent = 0x1182c8;
_ZN11CtrFileBaseD1Ev = 0x118668;
_ZN11CtrFileBaseD2Ev = 0x118670;
_ZN12CtrFReadBaseC1Ev = 0x118864;
_ZN13MessageDrawerC1Ev = 0x1188a4;
_ZN14CellAnimeState10resetStateEv = 0x1188d0;
_ZN14CellAnimeState7prepareEv = 0x118900;
_ZN3Grp11GetLcdWidthEj = 0x11dcf8;
_ZN3Grp12GetProjOrthoEPN2nn4math5MTX44Ejbbff = 0x11dd24;
_ZN4PrimC1Ev = 0x11ddf8;
_ZN5CtrFS8initCoreEP9CtrJobManPvi = 0x11e3cc;
_ZN6GameDB8GetEquipEt = 0x11e448;
_ZN7MessageC1Ev = 0x11e4a8;
_ZN12CellAnimeTex9initFcramEPKv = 0x11e5b8;
_ZN8REDSPARK2Sd7RSSound7IsEntryEiii = 0x11f3d4;
_ZN9CellAnime13setConstColorEiN2nn4util6Color8E = 0x11f58c;
_ZN9CellAnime4drawER14CellAnimeState = 0x11f5d0;
_ZN9CellAnime4playEhss = 0x11f654;
_ZNK2nn2gr3CTR8Combiner11MakeCommandEPj = 0x120804;
nnnstdMemCpy = 0x125e08;
strncmp = 0x126618;
__aeabi_memclr = 0x126708;
_ZN11CtrFileBaseC2Ev = 0x126750;
_ZN13MessageWriterC1Ev = 0x1267fc;
_ZN2nn2fs6detail8FileBase7TrySeekExNS0_12PositionBaseE = 0x127054;
_ZN2nn2os10LightEvent4WaitEv = 0x1271f8;
_ZN2nn2os6Thread9SleepImplENS_3fnd8TimeSpanE = 0x1274bc;
nngxGetPhysicalAddr = 0x1290d8;
_ZN3Frm4playEi = 0x12a1e4;
_ZN3Frm6setSpdEs = 0x12a25c;
_ZN9CellAnime8GetPtnNoEPKN15CellAnimeFmtCtr10FileHeaderEhi = 0x12b680;
_ZN9CellAnime8drawCoreER14CellAnimeStatePjPKN15CellAnimeFmtCtr7PatternEb = 0x12b764;
nngxUpdateBuffer = 0x131cb0;
__aeabi_memcpy4 = 0x1337d0;
__aeabi_uidivmod = 0x133884;
_ZN2nn2fs6detail8FileBase14TrySetPositionEx = 0x133f8c;
nndbgPanic = 0x134278;
__hardfp_cosf = 0x140f74;
__hardfp_sinf = 0x1410f0;
_ZN2nn4math5ARMv616VEC3TransformAsmEPNS0_4VEC3EPKNS0_5MTX33EPKS2_ = 0x142594;
_ZN2nn4math5ARMv612MTX34MultAsmEPNS0_5MTX34EPKS2_S5_ = 0x1425c8;
_ZN2nn4math5ARMv612MTX34MultAsmEPNS0_5MTX34EPKS2_f = 0x1426ac;
_ZN2nn4math5ARMv611MTX34AddAsmEPNS0_5MTX34EPKS2_S5_ = 0x1426e8;
_ZN2nn4math5ARMv617MTX34MultScaleAsmEPNS0_5MTX34EPKS2_PKNS0_4VEC3E = 0x142734;
_ZN2nn4math5ARMv615MTX34InverseAsmEPNS0_5MTX34EPKS2_ = 0x1427a8;
_ZN2nn4math5ARMv620MTX34InvTransposeAsmEPNS0_5MTX34EPKS2_ = 0x1428c4;
_ZN2nn4math5ARMv621MTX34MultTranslateAsmEPNS0_5MTX34EPKNS0_4VEC3EPKS2_ = 0x1429c0;
_ZN2nn4math5ARMv621MTX34MultTranslateAsmEPNS0_5MTX34EPKS2_PKNS0_4VEC3E = 0x1429dc;
_ZN2nn4math5ARMv617MTX34TransposeAsmEPNS0_5MTX34EPKS2_ = 0x142a10;
_ZN2nn4math5ARMv615MTX34ToMTX33AsmEPNS0_5MTX33EPKNS0_5MTX34E = 0x142bfc;
memset = 0x143bdc;
strncpy = 0x143bf8;
LMS_GetText = 0x145b08;
LMS_GetTextSize = 0x145b44;
_Z10PutRegFlagtfP11GlobalEventP10LocalEvent = 0x145dc8;
_Z11FieldPlaySejPK12FieldChrPrimffb = 0x146090;
_Z13BtlGetMonDataj = 0x1467a8;
_Z13GetSndSeParamj = 0x146858;
_Z16TransCrossBtnBitj = 0x146ca8;
_Z17RewriteMatTexCombPN4adsl3gfx5ModelE24RewriteMatTexCombEquModeRKN2nw2ut10FloatColorE = 0x146e0c;
_Z20SetTex4bLocationFlagjN4adsl3gfx3res15ResGraphicsFileEPS2_j = 0x147268;
_Z21InitRewriteMatTexCombPN4adsl3gfx5ModelEPPKc = 0x147624;
_Z29GetHugeBtlInfo_LimitTurn_Hardh = 0x148c60;
_Z31GetHugeBtlInfo_LimitTurn_Normalh = 0x148e4c;
_Z35GetHugeBtlInfo_LimitTurn_Hard_Finalh = 0x148ea8;
_Z37GetHugeBtlInfo_LimitTurn_Normal_Finalh = 0x148f24;
_ZN10BCBootInfo3getEv = 0x1494a4;
_ZN10CtrArcFile4openEPKwPKv = 0x159334;
_ZN10CtrArcFile6cancelEi = 0x1593ec;
_ZN10CtrArcFile6isBusyEj = 0x15954c;
_ZN10CtrArcFile7getSizeEi = 0x1595ec;
_ZN10CtrArcFile8readCoreEP8CtrFReadijj = 0x15965c;
_ZN6DfxSys4termEv = 0x15b47c;
_ZN10FieldObjCA5chgCAEP11FieldCAData = 0x195010;
_ZN10FieldObjCA5delCAEv = 0x195128;
_ZN10FieldObjCA6initCAEPKN2nn4math5MTX34E = 0x195174;
_ZN10FieldObjCA6playCAEii = 0x195188;
_ZN10FieldObjCA6playCAEiisf = 0x1951a0;
_ZN10FieldObjCA7buildCAEP10MemAlcBase = 0x19524c;
_ZN10FieldObjCA9setCADispEb = 0x195394;
_ZN10FieldObjCAC1Ev = 0x1953a4;
_ZN10MessageSys11GetLangNameEv = 0x1c79a4;
_ZN10MessageSys4drawEj = 0x1c7ac0;
_ZN10MessageSys4funcEv = 0x1c7de4;
_ZN10MessageSys4initEP10MemAlcBaseiij = 0x1c813c;
_ZN10MessageSys7GetPathEPcPKcb = 0x1c8248;
_ZN10MessageSysD1Ev = 0x1c8338;
_ZN10PrimVtxBuf4initEPvjb = 0x1c9424;
_ZN10PrimVtxBuf5beginENS_5StyleENS_8DrawModeEjb = 0x1c95f4;
_ZN10PrimVtxBuf6vtxClrEN2nn4util6Color8E = 0x1c9774;
_ZN10PrimVtxBuf6vtxPosEfff = 0x1c9824;
_ZN10PrimVtxBuf6vtxTexEff = 0x1c98b0;
_ZN10PrimVtxBuf7swapBufEv = 0x1c9954;
_ZN10PrimVtxBufC1Ev = 0x1c99f4;
_ZN10RealSystemC1EPK13FieldBootInfo = 0x1cb910;
_ZN11BtlBootInfo5resetEv = 0x1cf1f0;
_ZN11CtrFileBase6cancelEv = 0x1e0668;
_ZN11CtrFileBase6isBusyEv = 0x1e07c0;
_ZN11CtrFileBaseD0Ev = 0x1e0850;
_ZN11DfxChildMan3runEv = 0x1e29dc;
_ZN11DreamSystemC1EPK13FieldBootInfo = 0x1e5374;
_ZN11FieldCamera6setPosEPKN2nn4math4VEC3ES4_ = 0x1e6348;
_ZN11FieldCamera6updateEv = 0x1e64f0;
_ZN11FieldObjMdl6chgMdlEP12FieldMdlDatajP9GfxScnSysPKNS2_17ScnObjCreateParamE = 0x1e9c08;
_ZN11FieldObjMdl6chgMdlEPN4adsl3gfx3res8ResModelEP9GfxScnSysPKNS5_17ScnObjCreateParamE = 0x1e9c80;
_ZN11FieldObjMdlC1Ev = 0x1ea7c4;
_ZN11FieldObjMdlD1Ev = 0x1ea8b4;
_ZN11FieldSystem10GetMdlDataEP13FieldMainBasehj = 0x1eb0b0;
_ZN11FieldSystem9GetCADataEP13FieldMainBasehj = 0x1f3cfc;
_ZN11GlobalEvent12getStatusRegEP10LocalEventi = 0x1f4b18;
_ZN11GlobalEvent12setStatusRegEP10LocalEventif = 0x1f4b24;
_ZN11GlobalEvent14execLocalEventEP10LocalEvent = 0x1f4e04;
_ZN11GlobalEvent4initEPKvPfh = 0x1f5024;
_ZN11GlobalEvent6execExEP10LocalEventP10ScriptCode = 0x1f561c;
_ZN11GlobalEventC1Ev = 0x1f5dd8;
_ZN6SndSys9setVolumeEP11SoundHandlefi = 0x20201c;
_ZN12BtlMainProxyC1Ev = 0x214f40;
_ZN12CalcEquipEff7setCoinEj = 0x21d8a8;
_ZN12CalcEquipEffC1Ej = 0x21d8b0;
_ZN12CellAnimeTex8initVramEPKvjj = 0x21d964;
_ZN12DfxMemorySys16memReadCancelAllEv = 0x222088;
_ZN12DfxMemorySys4initEP10MemAlcBaseP9DfxResAlcP11DfxLinkListI9DfxLineBBEP15DfxVRAMTransferP5CtrFSt = 0x222150;
_ZN12DfxMemorySys4termEv = 0x22222c;
_ZN12DfxMemorySys6doWorkEv = 0x222308;
_ZN12DfxMemorySysC1Ev = 0x22264c;
_ZN12DfxMemorySysD1Ev = 0x222694;
_ZN12DfxUnitIDMan4initEP10MemAlcBaseh = 0x2229c8;
_ZN12DfxUnitIDMan4termEv = 0x222a0c;
_ZN12DfxUnitIDMan9getNextIDEv = 0x222a30;
_ZN12DfxUnitIDMan9releaseIDEh = 0x222a88;
_ZN10FieldObjCAD1Ev = 0x234014;
_ZN12ScriptSystem4initEPKv = 0x29d8d0;
_ZN12ScriptSystem6rewindEP10ScriptUnitPK10ScriptCode = 0x29da70;
_ZN11GlobalEventD1Ev = 0x29db18;
_ZN12TaskMainBase7restoreEv = 0x29fdbc;
_ZN12VramAlcRangeC1Ev = 0x2a1770;
_ZN12VramAlcRangeD1Ev = 0x2a17a8;
_ZN13CmdCacheMulti4initEii = 0x2a8d00;
_ZN13CmdCacheMulti4termEv = 0x2a8d54;
_ZN13CmdCacheMulti5clearEv = 0x2a8d84;
_ZN13CmdCacheMulti7endSaveEi = 0x2a8dc0;
_ZN13CmdCacheMulti9beginSaveEv = 0x2a8e04;
_ZN13CmdCacheMultiC1Ev = 0x2a8e2c;
_ZN13CmdCacheMultiD1Ev = 0x2a8e5c;
_ZN13CtrLoadModuleC1Ev = 0x2a9044;
_ZN13FieldMainBase14GetMapStatDataEt = 0x2afffc;
_ZN13MessageDrawer10drawCursorEPjP13MessageWriter = 0x2bf2b0;
_ZN13MessageDrawer11drawRubyWinEPjP13MessageWriter = 0x2bf408;
_ZN13MessageDrawer4drawEP13MessageWriterb = 0x2bf56c;
_ZN13MessageDrawer4initEP10MemAlcBasej = 0x2bf714;
_ZN13MessageDrawer4termEv = 0x2bfdd0;
_ZN13MessageDrawer6setTexEPji = 0x2bfe34;
_ZN13MessageDrawer7drawBtnEPjP13MessageWriter = 0x2bfee0;
_ZN13MessageDrawer7drawStrEPjP13MessageWriter = 0x2c026c;
_ZN13MessageDrawer7prepareEv = 0x2c0dd0;
_ZN13MessageDrawer8drawKickEPjj = 0x2c0de4;
_ZN13MessageDrawer9copyCacheEPjj = 0x2c0e1c;
_ZN13MessageDrawerD1Ev = 0x2c0e90;
_ZN13MessageSimple12getLineSpaceEPKwbPf = 0x2c0fe0;
_ZN13MessageSimple12getLineWidthEPKwPPwPbPf = 0x2c12f8;
_ZN13MessageSimple12getPageWidthEPKw = 0x2c1584;
_ZN13MessageSimple13getLineHeightEPKwPPwPbPf = 0x2c1608;
_ZN13MessageSimple13getPageHeightEPKw = 0x2c173c;
_ZN13MessageSimple4initEv = 0x2c17d4;
_ZN13MessageSimple4playEPKwPNS_8InsParamEb = 0x2c1880;
_ZN13MessageSimple8checkColEff = 0x2c2340;
_ZN13MessageSimple9printRubyEjP13MessageWriter = 0x2c23ec;
_ZN13MessageSimpleC1Ev = 0x2c24d0;
_ZN13MessageSimpleD1Ev = 0x2c2578;
_ZN13MessageWriter11setParallaxEfPKN2nn4ulcd3CTR12StereoCameraE = 0x2c25c0;
_ZN13MessageWriter12setFontColorEN2nn4util6Color8Eb = 0x2c2650;
_ZN13MessageWriter4initEv = 0x2c2810;
_ZN13MessageWriter4termEv = 0x2c29d0;
_ZN13MessageWriter5clearEv = 0x2c29d4;
_ZN13MessageWriter8setDepthEfff = 0x2c2dfc;
_ZN13MessageWriterD1Ev = 0x2c2e88;
_ZN14CellAnimeState17setProj2dParallaxEPKN2nn4ulcd3CTR12StereoCameraERKNS0_4math5MTX44E = 0x2cdec4;
_ZN14CellAnimeStateC1Ev = 0x2cdef0;
_ZN14CellAnimeStateD1Ev = 0x2cdf9c;
_ZN14FieldDfxSystem13deleteUnitAllEh = 0x2d35cc;
_ZN14FieldDfxSystem5entryEht = 0x2d436c;
_ZN15DfxVRAMTransfer17transferCancelAllEv = 0x2fbb78;
_ZN15DfxVRAMTransfer4initEjP10MemAlcBase = 0x2fbbf4;
_ZN15DfxVRAMTransfer4termEv = 0x2fbce0;
_ZN15DfxVRAMTransfer6doWorkEv = 0x2fbd5c;
_printf_truncate_signed = 0x2fde49;
_printf_truncate_unsigned = 0x2fde5f;
_printf_pre_padding = 0x2fe081;
_is_digit = 0x2fe485;
__aeabi_idivmod = 0x2fef78;
__aeabi_memcpy = 0x2ff318;
mbrtowc = 0x2ff3d5;
_ZdaPv = 0x2ff608;
__aeabi_memclr4 = 0x2ffda4;
strcmp = 0x3000b8;
strlen = 0x300174;
_ZNSsC1ERKSaIcE = 0x301105;
_ZNSsC2ERKSaIcE = 0x301105;
_ZdlPv = 0x301180;
_ZN4__rw10__rw_throwEiz = 0x30119d;
_ZNSsC1EPKcRKSaIcE = 0x301205;
_ZNSsC2EPKcRKSaIcE = 0x301205;
_ZNSsC1ERKSs = 0x30123d;
_ZNSsC2ERKSs = 0x30123d;
_ZNSsD1Ev = 0x301279;
_ZNSsD2Ev = 0x301279;
_ZN4__rw18__rw_locale_vectorISsED1Ev = 0x301285;
_ZN4__rw18__rw_locale_vectorISsED2Ev = 0x301285;
memcpy = 0x3012f4;
_ZNSsaSERKSs = 0x301315;
__aeabi_vec_delete = 0x301359;
setlocale = 0x30147d;
_ZN4__rw21__rw_use_c_lib_localeD1Ev = 0x30166f;
_ZN4__rw21__rw_use_c_lib_localeD2Ev = 0x30166f;
_ZNSsC1EPKcjRKSaIcE = 0x3016dd;
_ZNSsC2EPKcjRKSaIcE = 0x3016dd;
_ZNSs5beginEv = 0x30173d;
_ZSt13__rw_get_catsv = 0x301791;
_ZNKSt5ctypeIcE2isENSt10ctype_base4maskEc = 0x301a85;
_ZN4__rw18__rw_locale_vectorIPNS_15__rw_facet_baseEE6resizeEjRKS2_ = 0x301a93;
_ZNSt6localeC1EPN4__rw15__rw_locale_impE = 0x301add;
_ZNSt6localeC2EPN4__rw15__rw_locale_impE = 0x301add;
_ZNSt6localeD1Ev = 0x301b81;
_ZNSt6localeD2Ev = 0x301b81;
_ZN4__rw18__rw_locale_vectorIPNS_15__rw_facet_baseEEixEj = 0x301ba5;
_ZNSt5ctypeIcED1Ev = 0x3021fd;
_ZNSt5ctypeIcED2Ev = 0x3021fd;
_ZN4__rw15__rw_locale_impC1EPKcjj = 0x302225;
_ZN4__rw15__rw_locale_impC2EPKcjj = 0x302225;
_ZN4__rw15__rw_locale_impD1Ev = 0x30230d;
_ZN4__rw15__rw_locale_impD2Ev = 0x30230d;
__cxa_guard_acquire = 0x3023b1;
__aeabi_atexit = 0x3023c4;
_ZNSt18__rw_open_cat_dataaSERKS_ = 0x3023c9;
_ZNK4__rw17__rw_collate_dataIcE13_C_coll_orderEc = 0x3024c1;
_ZSt3maxIjERKT_S2_S2_ = 0x3025c1;
_ZNSs9_C_getRepEjj = 0x3025cd;
_ZNSt11char_traitsIcE4copyEPcPKcj = 0x30264d;
_ZNSs9_C_unlinkEv = 0x302659;
__aeabi_memmove = 0x302770;
_ZN4__rw12__string_refIcSt11char_traitsIcESaIcEE10_C_inc_refEv = 0x302ad1;
_ZNSs7replaceEjjPKcj = 0x302ae5;
_ZN15MsgDataAcsrBaseC1EP12LMSBlockInfoj = 0x308f8c;
_ZN15MsgDataAcsrBaseD1Ev = 0x308fd0;
_ZN16FieldSoundSystem7playBgmEij = 0x321bfc;
_ZN16FieldSoundSystem7stopBgmEii = 0x321c1c;
_ZN16RenderDrawSysDFX12DfxRenderBuf4initEP10MemAlcBasett = 0x32f7f8;
_ZN16RenderDrawSysDFX12DfxRenderBuf4termEv = 0x32f8ac;
_ZN16RenderDrawSysDFX12DfxRenderBufC1Ev = 0x32f8f8;
_ZN16RenderDrawSysDFX13setLayerZFuncEhbb = 0x32f914;
_ZN16RenderDrawSysDFX15initRenderStateEh = 0x32fd38;
_ZN16RenderDrawSysDFX15preCollectionExEh = 0x32fd4c;
_ZN16RenderDrawSysDFX17DfxRenderBufRange5Range14makeRenderPackERNS_12DfxRenderBufEPS_ = 0x32fe44;
_ZN16RenderDrawSysDFX17DfxRenderBufRange5RangeC1Ev = 0x33092c;
_ZN16RenderDrawSysDFX4initEP10MemAlcBasettj = 0x3314f8;
_ZN16RenderDrawSysDFX6setCamERKN2nn4math5MTX34ERKNS1_5MTX44ERKNS1_4VEC3ESA_ = 0x3319cc;
_ZN16RenderDrawSysDFX9preRenderEv = 0x331e18;
_ZN16RenderDrawSysDFXC1Ev = 0x331e48;
_ZN16RenderDrawSysDFXD1Ev = 0x332104;
_ZN16UIListWindowPlus10drawListCAER14CellAnimeStateRKN8UICommon3PosEii = 0x332334;
_ZN16UIListWindowPlus11drawCaptionER14CellAnimeState = 0x332854;
_ZN16UIListWindowPlus11drawListStrER13MessageDrawerRKN8UICommon3PosEii = 0x33292c;
_ZN16UIListWindowPlus11tpCtrlStartEss = 0x332e30;
_ZN16UIListWindowPlus4drawER14CellAnimeStateR4PrimR13MessageDrawer = 0x333214;
_ZN16UIListWindowPlus4initERKNS_9InitParamE = 0x3336f8;
_ZN16UIListWindowPlus6tpCtrlEPPNS_4ItemEssaa = 0x33378c;
_ZN16UIListWindowPlus7keyCtrlEjjjjf = 0x333980;
_ZN16UIListWindowPlus8setCurNoEh = 0x3339fc;
_ZN16UIListWindowPlus9InitParamC1Ev = 0x333b18;
_ZN16UIListWindowPlus9tpCtrlCntEss = 0x333b84;
_ZN16UIListWindowPlus9tpCtrlEndEPPNS_4ItemE = 0x334034;
_ZN16UIListWindowPlusC1Ev = 0x334104;
_ZN16UIListWindowPlusD1Ev = 0x334354;
_ZN17FieldCameraStereoC1Ev = 0x35b630;
_ZN17FieldCameraStereoD1Ev = 0x35b654;
_ZN18FieldMessageSystem5setSEEjjj = 0x37dbf4;
_ZN18FieldMessageSystem7resetSEEj = 0x37dd1c;
_ZN19MsgWndPosCalculator4calcEPNS_6ResultE = 0x3a3a98;
_ZN2nn3hid3CTR12GetGyroscopeEv = 0x460d54;
_ZN2nn3hid3CTR15GyroscopeReader10ReadLatestEPNS1_15GyroscopeStatusE = 0x460d60;
_ZN2nn3hid3CTR15GyroscopeReader14EnableZeroPlayEv = 0x460e8c;
_ZN2nn3hid3CTR15GyroscopeReader15DisableZeroPlayEv = 0x460e98;
_ZN2nn3hid3CTR15GyroscopeReader15EnableAccReviseEv = 0x460ea4;
_ZN2nn3hid3CTR15GyroscopeReader15EnableZeroDriftEv = 0x460eb0;
_ZN2nn3hid3CTR15GyroscopeReader16DisableAccReviseEv = 0x460ebc;
_ZN2nn3hid3CTR15GyroscopeReader16DisableZeroDriftEv = 0x460ec8;
_ZN2nn3hid3CTR15GyroscopeReader16SetZeroDriftModeERKNS1_13ZeroDriftModeE = 0x460ed4;
_ZN2nn3hid3CTR15GyroscopeReader18ResetZeroDriftModeEv = 0x461124;
_ZN2nn3hid3CTR15GyroscopeReaderC1EPNS1_19AccelerometerReaderERNS1_9GyroscopeE = 0x46216c;
_ZN2nn3hid3CTR15GyroscopeReaderD1Ev = 0x46236c;
_ZN2nn4math10SinCosFIdxEPfS1_f = 0x463130;
_ZN2nn4math7CosFIdxEf = 0x464928;
_ZN2nn4math7SinFIdxEf = 0x464990;
_ZN2nn4math8Atan2IdxEff = 0x464a0c;
_ZN2nn4math8AtanFIdxEf = 0x464b38;
_ZN2nn4math9Atan2FIdxEff = 0x464bd0;
_ZN2nn4ulcd3CTR12StereoCamera10InitializeEv = 0x464df0;
_ZN2nn4ulcd3CTR12StereoCamera13SetBaseCameraEPKNS_4math5MTX34E = 0x464ec0;
_ZN2nn4ulcd3CTR12StereoCamera14SetBaseFrustumEPKNS_4math5MTX44E = 0x464f10;
_ZN2nn4ulcd3CTR12StereoCamera17CalculateMatricesEPNS_4math5MTX44EPNS3_5MTX34ES5_S7_ffNS3_14PivotDirectionE = 0x464fa8;
_ZN2nn4ulcd3CTR12StereoCamera21CalculateMatricesRealEPNS_4math5MTX44EPNS3_5MTX34ES5_S7_ffNS3_14PivotDirectionE = 0x4652e0;
_ZN2nn4ulcd3CTR12StereoCamera8FinalizeEv = 0x465644;
_ZN2nn4ulcd3CTR12StereoCameraC1Ev = 0x465648;
_ZN2nn4ulcd3CTR12StereoCameraD1Ev = 0x46565c;
_ZN2nw2ut24GetNextBinaryBlockHeaderEPNS0_16BinaryFileHeaderEPNS0_17BinaryBlockHeaderE = 0x465d88;
_ZN2nw3lyt11FindHitPaneEPNS0_6LayoutERKN2nn4math4VEC2E = 0x466180;
_ZN2nw3lyt11TexResource3SetEPvj = 0x4665dc;
_ZN2nw3lyt12AnimResource3SetEPKv = 0x4666f0;
_ZN2nw3lyt12AnimResourceC1Ev = 0x466798;
_ZN2nw3lyt16GraphicsResource10StartSetupEv = 0x466c34;
_ZN2nw3lyt16GraphicsResource11FinishSetupEv = 0x466c38;
_ZN2nw3lyt16GraphicsResource11SetResourceEiPvjb = 0x466d18;
_ZN2nw3lyt16GraphicsResource8FinalizeEv = 0x46706c;
_ZN2nw3lyt16GraphicsResourceC1Ev = 0x467138;
_ZN2nw3lyt19ArcResourceAccessor6AttachEPvPKc = 0x468010;
_ZN2nw3lyt19ArcResourceAccessor6DetachEv = 0x468074;
_ZN2nw3lyt19ArcResourceAccessorC1Ev = 0x4680dc;
_ZN2nw3lyt4Pane11AppendChildEPS1_ = 0x468628;
_ZN2nw3lyt4Pane11InsertChildEPS1_S2_ = 0x46864c;
_ZN2nw3lyt4Pane11RemoveChildEPS1_ = 0x468670;
_ZN2nw3lyt4Pane7SetNameEPKc = 0x46900c;
_ZN2nw3lyt4PaneC1Ev = 0x469188;
_ZN2nw3lyt4PaneD1Ev = 0x469290;
_ZN2nw3lyt6Drawer7DrawEndERKNS0_8DrawInfoEj = 0x46af68;
_ZN2nw3lyt6Drawer9DrawBeginERKNS0_8DrawInfoEj = 0x46afd0;
_ZN2nw3lyt6DrawerC1Ev = 0x46b064;
_ZN2nw3lyt10InitializeEPNS_2os10IAllocatorES3_ = 0x46b938;
_ZN2nw3lyt6LayoutC1Ev = 0x46bc84;
_ZN2nw3lyt6TexMap12ResetU32InfoEv = 0x46bdb8;
_ZN2nw3lyt7TextBox7SetFontEPKNS_4font4FontE = 0x46d618;
_ZN2nw3lyt7TextBoxC1EtPKwPKNS_4font4FontENS4_16DispStringBuffer17CommandBufferModeE = 0x46d9c0;
_ZN2nw3lyt8DrawInfoC1Ev = 0x46dc1c;
_ZN2nw3lyt8Material12GetTexMapAryEv = 0x46df84;
_ZN2nw3lyt8Material12GetTexSRTAryEv = 0x46df8c;
_ZN2nw3lyt6Drawer10InitializeERNS0_16GraphicsResourceEPv = 0x471684;
_ZN2nw4font10RectDrawer11SetParallaxEfff = 0x4717bc;
_ZN2nw3lyt6Drawer4DrawEPKNS0_6LayoutERNS0_8DrawInfoE = 0x472bc8;
_ZN3Btn3CntEji = 0x480840;
_ZN3Btn3TrgEji = 0x480870;
_ZN3Btn6SelectEiijji = 0x480888;
_ZN3Frm6setFrmEi = 0x485cf8;
_ZN3Frm6updateEv = 0x485d40;
_ZN3Grp12GetLcdHeightEj = 0x485e18;
_ZN3Grp15SetClearStencilEj = 0x485e4c;
_ZN3Grp17restoreDefVramAlcEj = 0x485e5c;
_ZN3Grp18simpleSwapBufVSyncEj = 0x485ea0;
_ZN3Grp9GetLcdAspEj = 0x485ee8;
_ZN3Grp9waitVSyncEj = 0x485f20;
_ZN4Prim10enableCullEN2nn2gr3CTR11RenderState7Culling9FrontFaceENS4_8CullFaceE = 0x4a0c0c;
_ZN4Prim10setProjMtxERKN2nn4math5MTX44E = 0x4a0c3c;
_ZN4Prim10setViewMtxERKN2nn4math5MTX34E = 0x4a0cc8;
_ZN4Prim10setVtxAttrEPKNS_6VtxPosE = 0x4a0e08;
_ZN4Prim10setVtxAttrEPKNS_9VtxPosClrE = 0x4a0edc;
_ZN4Prim12drawElemCoreEPKvjb = 0x4a12ac;
_ZN4Prim13disableTexAllEv = 0x4a136c;
_ZN4Prim13setCombVtxClrEv = 0x4a13b8;
_ZN4Prim13setupCmnShbinENS_11CmnShbinIdxENS_13CmnGsShbinIdxE = 0x4a13fc;
_ZN4Prim15enableAlphaTestEh17PicaDataAlphaTest = 0x4a149c;
_ZN4Prim16disableDepthTestEv = 0x4a1540;
_ZN4Prim17disable2dParallaxEv = 0x4a1568;
_ZN4Prim17setProj2dParallaxEPKN2nn4ulcd3CTR12StereoCameraE = 0x4a1590;
_ZN4Prim17setProj2dParallaxEPKN2nn4ulcd3CTR12StereoCameraERKNS0_4math5MTX44E = 0x4a1624;
_ZN4Prim18disableStencilTestEv = 0x4a1678;
_ZN4Prim18setFrameBufferByGLEv = 0x4a16a0;
_ZN4Prim18setViewportScissorEj = 0x4a1880;
_ZN4Prim18setVtxAttrConstTexERKN2nn4math4VEC2E = 0x4a19cc;
_ZN4Prim20setCombTex0ModVtxClrEv = 0x4a1a30;
_ZN4Prim21setVtxAttrConstClrRawERKN2nn4util10FloatColorE = 0x4a1a74;
_ZN4Prim4termEv = 0x4a1ad8;
_ZN10PrimVtxBuf3endEv = 0x4a1bfc;
_ZN4Prim7drawAryEjj = 0x4a1c24;
_ZN4Prim7prepareEv = 0x4a1c54;
_ZN4Prim9setTexMtxERKN2nn4math5MTX34E = 0x4a214c;
_ZN4Prim9setTexResEiRK8GXResTex19PicaDataTextureWrapS3_24PicaDataTextureMinFilter24PicaDataTextureMagFilterfN2nn4util6Color8E = 0x4a2188;
_ZN4Prim9setWldMtxERKN2nn4math5MTX34E = 0x4a2220;
_ZN4Save10saveFormatEv = 0x4a225c;
_ZN4Save12getErrorCodeEv = 0x4a22d0;
_ZN4Save14saveOptionDataEv = 0x4a2300;
_ZN4Save4execEv = 0x4a2360;
_ZN4Save5entryEv = 0x4a2458;
_ZN4Save6createEP5CtrFSP10MemAlcBasej = 0x4a24b4;
_ZN4Save7destroyEv = 0x4a2510;
_ZN4Task4termEv = 0x4a2550;
_ZN4adsl3gfx12MeshRenderer10RenderMeshENS0_3res7ResMeshEPNS0_5ModelE = 0x4a8f28;
_ZN4adsl3gfx13IRenderTarget21CreateOffScreenBufferEPN2nw2os10IAllocatorENS0_3res10ResTextureE = 0x4ac4d8;
_ZN4adsl3gfx13RenderContext10ResetStateEii = 0x4ac5f0;
_ZN4adsl3gfx13RenderContext15ActivateContextEPNS0_18IMaterialActivatorE = 0x4ac930;
_ZN4adsl3gfx13RenderContext15SetCameraMatrixEPNS0_6CameraEb = 0x4acb20;
_ZN4adsl3gfx13RenderContext15SetRenderTargetEPNS0_13IRenderTargetE = 0x4acc04;
_ZN4adsl3gfx13ShaderProgram19ActivateDescriptionENS0_3res27ResShaderProgramDescriptionE = 0x4ae568;
_ZN4adsl3gfx13TransformNode28InvalidateInverseWorldMatrixEv = 0x4b0374;
_ZN9GfxScnSys15traverseScnRootEv = 0x4b187c;
_ZN4adsl3gfx15SkeletonUpdater10UpdateViewEPNS0_8SkeletonERKNS0_6CameraE = 0x4b1c00;
_ZN4adsl3gfx17BaseAnimEvaluator11ResetMemberEi = 0x4b4698;
_ZN4adsl3gfx3res10ResTexture5SetupEPN2nw2os10IAllocatorENS1_15ResGraphicsFileE = 0x4bc5f4;
_ZN4adsl3gfx3res10ResTexture7CleanupEv = 0x4bc69c;
_ZN4adsl3gfx3res15ResGraphicsFile5SetupEPN2nw2os10IAllocatorES2_ = 0x4bdf6c;
_ZN4adsl3gfx3res15ResGraphicsFile7CleanupEv = 0x4be404;
_ZN4adsl3gfx3res15ResImageTexture14DynamicBuilder6CreateEPN2nw2os10IAllocatorE = 0x4be894;
_ZN4adsl3gfx3res15ResImageTexture14DynamicDestroyEv = 0x4beb14;
_ZN4adsl3gfx3res16ResShadowTexture14DynamicBuilder6CreateEPN2nw2os10IAllocatorE = 0x4bf048;
_ZN4adsl3gfx3res16ResShadowTexture14DynamicDestroyEv = 0x4bf204;
_ZN4adsl3gfx3res16ResTextureMapper10SetTextureENS1_10ResTextureE = 0x4bf298;
_ZN4adsl3gfx3res8ResModel5SetupEPN2nw2os10IAllocatorENS1_15ResGraphicsFileE = 0x4c21ac;
_ZN4adsl3gfx6Camera14SetPerspectiveEffff = 0x4c5728;
_ZN4adsl3gfx6Camera15SetUpwardVectorERKN2nn4math4VEC3E = 0x4c59f8;
_ZN4adsl3gfx6Camera17SetTargetPositionERKN2nn4math4VEC3E = 0x4c5ae4;
_ZN4adsl3gfx6Camera18UpdateCameraMatrixEv = 0x4c5b70;
_ZN4adsl3gfx6Camera6SetFarEf = 0x4c6998;
_ZN4adsl3gfx6Camera7SetNearEf = 0x4c69c0;
_ZN4adsl3gfx6Camera8SetOrthoEffffff = 0x4c69e8;
_ZN5CtrFS6cancelEv = 0x4e626c;
_ZN5CtrTpC1Ev = 0x4e63f4;
_ZN5MoveC10moveCosSinERKN2nn4util6Color8Ef = 0x4e6450;
_ZN5MoveC4funcEf = 0x4e65b0;
_ZN5MoveC4stopEv = 0x4e6734;
_ZN5MoveC4waitEf = 0x4e6840;
_ZN5MoveC7moveCosERKN2nn4util6Color8Ef = 0x4e6888;
_ZN5MoveC7moveFrmERKN2nn4util6Color8Ef = 0x4e69b0;
_ZN5MoveC7moveSinERKN2nn4util6Color8Ef = 0x4e6ad8;
_ZN5rsLib10ColorBlink4initEi = 0x4e7fa4;
_ZN5rsLib10ColorBlink6updateEf = 0x4e7fbc;
_ZN5rsLib10ColorBlinkC1Ei = 0x4e7ff0;
_ZN5rsLib10ColorBlinkD1Ev = 0x4e801c;
_ZN6Backup12copySaveDataEss = 0x4f0f30;
_ZN6Backup12getSaveData1Es = 0x4f0fe4;
_ZN6Backup12isBusyFormatEv = 0x4f101c;
_ZN6Backup13isBusyReadingEv = 0x4f1064;
_ZN6Backup13isBusyWritingEv = 0x4f1104;
_ZN6Backup13readSaveData2Es = 0x4f1320;
_ZN6Backup14buildPrizeWorkEv = 0x4f153c;
_ZN6Backup14deleteSaveDataEsb = 0x4f15b4;
_ZN6Backup14writeSaveData0Es = 0x4f167c;
_ZN6Backup15setMsgPlayParamEPN7Message9PlayParamEPi = 0x4f173c;
_ZN6Backup16destroyPrizeWorkEv = 0x4f178c;
_ZN6Backup20writeSaveDataPartialEjs = 0x4f17f4;
_ZN6Backup4initEP5CtrFS = 0x4f19c8;
_ZN6Backup4termEv = 0x4f19f4;
_ZN6Backup5mountEv = 0x4f1a18;
_ZN6Backup6formatEv = 0x4f1a40;
_ZN6Backup7addCoinEi = 0x4f1a9c;
_ZN6Backup7addItemEta = 0x4f1ac8;
_ZN6BackupD1Ev = 0x4f1afc;
_ZN6DfxSys13ApplyCamShakeEPN2nn4math4VEC3ES3_S3_ = 0x50e9dc;
_ZN6DfxSys13resetFrmParamEv = 0x50ed14;
_ZN6DfxSys4initEN16RenderDrawSysDFX8CATEGORYEP12DfxMemorySysPS0_PKwS6_S6_S6_S6_S6_S6_S6_S6_S6_ = 0x50edd4;
_ZN6DfxSys7freeResEv = 0x50ee9c;
_ZN6DfxSys8entryResEt = 0x50eec8;
_ZN6DfxSys9initParamEv = 0x50efa8;
_ZN6DfxSysC1Ev = 0x50f090;
_ZN6DfxSysD1Ev = 0x50f1ac;
_ZN6GameDB10GetItemMsgEtNS_11ItemMsgTypeE = 0x50f250;
_ZN6GameDB10GetUseItemEt = 0x50f2e8;
_ZN6GameDB11GetItemDataEt = 0x50f30c;
_ZN6GameDB12GetPcAtkDataEt = 0x50f368;
_ZN6GameDB14GetBadgeEffectEt = 0x50f3c8;
_ZN6GameDB14GetBadgeIdListEh = 0x50f3ec;
_ZN6GameDB14GetBadgeIdListEv = 0x50f3fc;
_ZN6GameDB14GetBadgeIdPairEt = 0x50f408;
_ZN6GameDB14GetEquipIdListEv = 0x50f448;
_ZN6GameDB14GetItemMsgCoreEt = 0x50f454;
_ZN6GameDB14GetPcAtkExpMsgEthh = 0x50f464;
_ZN6GameDB16GetBadgeEffectIdEtt = 0x50f4bc;
_ZN6GameDB16GetBrosAtkIdListEv = 0x50f4ec;
_ZN6GameDB16GetUseItemIdListEv = 0x50f568;
_ZN6GameDB17GetBadgeEffExpMsgEt = 0x50f574;
_ZN6GameDB18GetRankUpBonusNameEt = 0x50f5d4;
_ZN6GameDB19GetMiracleAtkIdListEv = 0x50f600;
_ZN6GameDB20GetRankUpBonusExpMsgEt = 0x50f618;
_ZN6GameDB25GetExpertChallengeMsgDataEt = 0x50f650;
_ZN6GameDB25GetExpertChallengeMsgFileEv = 0x50f660;
_ZN6GameDB8GetBadgeEt = 0x50f670;
_ZN6MemAlc4freeEPv = 0x50f7f8;
_ZN6MemAlc9allocCoreEjj = 0x50fae0;
_ZN6SndSys13setStartPointEf = 0x51c544;
_ZN6SndSys13startPreparedEP11SoundHandle = 0x51c554;
_ZN6SndSys16clearReplayPointEi = 0x51c644;
_ZN6SndSys4initEP10MemAlcBasejjjj = 0x51c648;
_ZN6SndSys4loadEjjjbi = 0x51c72c;
_ZN6SndSys4stopEP11SoundHandlei = 0x51cac4;
_ZN6SndSys4termEv = 0x51cb24;
_ZN6SndSys5pauseEP11SoundHandlei = 0x51cb40;
_ZN6SndSys5startEjP11SoundHandle = 0x51cb78;
_ZN6SndSys6removeEi = 0x51cf48;
_ZN6SndSys6resumeEP11SoundHandlei = 0x51cf94;
_ZN6SndSys6setPanEP11SoundHandlef = 0x51cfcc;
_ZN6SndSys7prepareEjP11SoundHandle = 0x51d014;
_ZN6SndSys7startSeEPNS_6SeWorkEjt = 0x51d17c;
_ZN6SndSys7stopAllEv = 0x51d230;
_ZN6SndSys9getSeWorkEPi = 0x51d430;
_ZN6SndSys9getSeWorkEi = 0x51d504;
_ZN7CtrFSEx4readEjP10MemAlcBasejjjj = 0x532948;
_ZN7CtrFSEx4readEjPvjjj = 0x532a24;
_ZN7CtrFSEx4readEjiP10MemAlcBasejjj = 0x532adc;
_ZN7CtrFSEx4termEv = 0x532c94;
_ZN7DfxUnit10setVisibleEb = 0x532de8;
_ZN7DfxUnit12isExistChildEv = 0x532e9c;
_ZN7DfxUnit3runEv = 0x532f4c;
_ZN7DfxUnit4initEh = 0x533588;
_ZN7DfxUnit4killEv = 0x533678;
_ZN7DfxUnit5setUpEtR3Dfx = 0x5336a4;
_ZN7DfxUnitC1Ev = 0x533820;
_ZN7DfxUnitD1Ev = 0x5338cc;
_ZN7FieldFS4openEjj = 0x5373d4;
_ZN7MComSys13getPrevAreaNoEv = 0x544004;
_ZN7MComSys13setPrevAreaNoEh = 0x544018;
_ZN7MComSys14initPrevAreaNoEv = 0x544028;
_ZN7Message4funcEjb = 0x5447c0;
_ZN7Message4initEv = 0x5457c8;
_ZN7Message4playEPNS_9PlayParamE = 0x545894;
_ZN7Message4playEtPN13MessageSimple8InsParamEb = 0x545994;
_ZN7Message4termEv = 0x546054;
_ZN7Message5closeEv = 0x546080;
_ZN7Message5setSEEjiiifhjiiifh = 0x5460dc;
_ZN7Message9setMsgDatEPKv = 0x5461f8;
_ZN7MessageD1Ev = 0x5462a4;
_ZN7RandSys3getEv = 0x546bc4;
_ZN8CtrNwAlcC1Ev = 0x572bd8;
_ZN8CtrNwAlcD1Ev = 0x572c0c;
_ZN8DfxChildC1Ev = 0x572c20;
_ZN8DfxChildD1Ev = 0x572c4c;
_ZN8GXResCmn10deallocCmnEj = 0x5857e0;
_ZN8GXResCmn4termEv = 0x585828;
_ZN8GXResCmnC1Ev = 0x58588c;
_ZN8GXResCmnD1Ev = 0x5858b4;
_ZN8GXResTex7initTPLEPKvi = 0x585944;
_ZN8GXResTex8allocTPLEPKvijjb = 0x5859bc;
_ZN8GXResTexC1Ev = 0x585a94;
_ZN8GXResTexD1Ev = 0x585b48;
_ZN8GameMain11gameModeOldEv = 0x585d58;
_ZN8GameMain4backEv = 0x585de4;
_ZN8GameMain6changeE9GAME_MODE = 0x586220;
_ZN8GameWork10equipBadgeEht = 0x586518;
_ZN8GameWork11addPcStatusEh12PcStatusTypeN6DataPc12ParamAddTypeEib = 0x586530;
_ZN8GameWork11getPlayTimeEPsS0_S0_S0_ = 0x5865a0;
_ZN8GameWork11onNewPuzzleEh = 0x58671c;
_ZN8GameWork12ApplyPerCentEii = 0x58673c;
_ZN8GameWork13getRealAreaNoEh = 0x586778;
_ZN8GameWork14onNewColosseumEh = 0x5867e4;
_ZN8GameWork15putBadgeBitFlagEt = 0x5867fc;
_ZN8GameWork16existKoopaCastleEv = 0x586808;
_ZN8GameWork16onClearColosseumEh = 0x586824;
_ZN8GameWork16onPlayablePuzzleEh = 0x58683c;
_ZN8GameWork18putPuzzleClearTimeEhj = 0x5869e0;
_ZN8GameWork19putMenuEquipBitFlagEjb = 0x5869ec;
_ZN8GameWork20putColosseumBestTurnEhh = 0x586b00;
_ZN8GameWork7addCoinEi = 0x586c6c;
_ZN8GameWork9equipItemEhth = 0x586f70;
_ZN8REDSPARK2Sd7RSSound7isPauseEi = 0x58969c;
_ZN8REDSPARK2Sd7RSSound17GetStreamPlayInfoEiRiS2_S2_ = 0x589df0;
_ZN8REDSPARK2Sd7RSSound5pauseEibi = 0x589f90;
_ZN9CellAnime4termEv = 0x592ea8;
_ZN9CellAnime6setFrmEi = 0x592ed4;
_ZN9CellAnime6updateEv = 0x592ee0;
_ZN9CellAnime8setPtnNoEt = 0x593050;
_ZN9CellAnimeC1Ev = 0x593174;
_ZN9CellAnimeD1Ev = 0x593360;
_ZN9CtrJobMan3jamEP3Job = 0x594358;
_ZN9CtrJobMan6isBusyEP3Job = 0x59438c;
_ZN9CtrJobMan7enqueueEP3Job = 0x5943c0;
_ZN9CtrJobMan7releaseEP3Job = 0x5943f4;
_ZN9CtrJobMan7releaseEv = 0x594428;
_ZN9CtrModuleC1Ev = 0x59445c;
_ZN9CtrModuleD1Ev = 0x59450c;
_ZN9DfxBuffer9setBufNumEj = 0x594c04;
_ZN9DfxLineBBC1Ev = 0x5958bc;
_ZN9DfxLineBBD1Ev = 0x5958f0;
_ZN9DfxResAlc4initEjjjjj = 0x595920;
_ZN9DreamUtil10ChkQuadSegERKN2nn4math4VEC3ES4_S4_S4_S4_S4_Pf = 0x59757c;
_ZN9DreamUtil9ChkTriSegERKN2nn4math4VEC3ES4_S4_S4_S4_Pf = 0x598754;
_ZN9FieldFade5startEjt = 0x59966c;
_ZN9FieldLoad10StartFieldEv = 0x59b640;
_ZN9FieldLoad4ReadEPKvj = 0x59b6f4;
_ZN9GfxScnSys10UpdateNodeEPN4adsl3gfx13TransformNodeE = 0x59b7e4;
_ZN9GfxScnSys11initScnRootEi = 0x59be48;
_ZN9GfxScnSys11termScnTreeEv = 0x59bf20;
_ZN9GfxScnSys12createCameraEN4adsl3gfx3res9ResCamera8ProjTypeENS3_8ViewTypeEb = 0x59bf98;
_ZN9GfxScnSys12createScnObjEN4adsl3gfx3res14ResSceneObjectERKNS_17ScnObjCreateParamE = 0x59c20c;
_ZN9GfxScnSys13createMatAnimEN4adsl4anim3res7ResAnimEPNS0_3gfx5ModelEbii = 0x59c3a4;
_ZN9GfxScnSys13createVisAnimEN4adsl4anim3res7ResAnimEPNS0_3gfx5ModelEbii = 0x59c450;
_ZN9GfxScnSys13updateScnRootEv = 0x59c564;
_ZN9GfxScnSys15createTransAnimEN4adsl4anim3res7ResAnimEPNS0_3gfx13SkeletalModelEbii = 0x59c57c;
_ZN9GfxScnSys16SetRenderContextEPN4adsl3gfx12SceneContextEPNS1_13RenderContextEPNS1_6CameraEi = 0x59c62c;
_ZN9GfxScnSys16calcStereoCameraEPN4adsl3gfx6CameraES3_PKS2_ffbN2nn4math14PivotDirectionE = 0x59c7fc;
_ZN9GfxScnSys18createSimpleCameraEv = 0x59ca10;
_ZN9GfxScnSys4initERKNS_9InitParamE = 0x59cae4;
_ZN9GfxScnSys4termEv = 0x59cc60;
_ZN9GfxScnSysC1Ev = 0x59cde0;
_ZN9GfxScnSysD1Ev = 0x59ce58;
_ZN9GfxShader3setEN4adsl3gfx3res8ResModelE = 0x59ce8c;
_ZN9MBootInfo10backCursorEv = 0x59ff50;
_ZN9MBootInfo10setDefaultEv = 0x59ffb4;
_ZN9MBootInfo11shopItemNewEt = 0x5a002c;
_ZN9MBootInfo12menuEquipNewEt = 0x5a0050;
_ZN9MBootInfo12shopItemNew2Et = 0x5a0078;
_ZN9MBootInfo12shopLookItemEt = 0x5a009c;
_ZN9MBootInfo12updateCursorEv = 0x5a00f0;
_ZN9MBootInfo13menuEquipNew2Et = 0x5a0118;
_ZN9MBootInfo13menuLookEquipEt = 0x5a0140;
_ZN9MBootInfo14menuSndSysInitEb = 0x5a0184;
_ZN9MBootInfo14menuSndSysTermEv = 0x5a0234;
_ZN9MBootInfo15menuSndSysEntryEv = 0x5a02b4;
_ZN9MBootInfo16menuAlterPcParamEh = 0x5a033c;
_ZN9MBootInfo17menuAlterGameWorkEv = 0x5a0358;
_ZN9MBootInfo17menuSndSysPlayBgmEv = 0x5a0414;
_ZN9MBootInfo17menuSndSysReleaseEv = 0x5a0434;
_ZN9MBootInfo18menuAlterPartyDataEh = 0x5a0484;
_ZN9MBootInfo19menuRestoreGameWorkEv = 0x5a0570;
_ZN9MBootInfo20menuRestorePartyDataEv = 0x5a05c0;
_ZN9MBootInfo3getEv = 0x5a0610;
_ZN9MBootInfo7setModeEs = 0x5a061c;
_ZN9MBootInfo7setPageEs = 0x5a062c;
_ZN9MBootInfo9getCursorEv = 0x5a0660;
_ZN9MBootInfo9setCursorEt = 0x5a0678;
_ZN9MoveFBase10moveCosAbsEiff = 0x5a11e4;
_ZN9MoveFBase10moveCosSinEiff = 0x5a1240;
_ZN9MoveFBase10moveFrmAbsEff = 0x5a12c4;
_ZN9MoveFBase10moveFrmAbsEiff = 0x5a13bc;
_ZN9MoveFBase10moveSinAbsEiff = 0x5a1564;
_ZN9MoveFBase13moveCosSinAbsEiff = 0x5a16b0;
_ZN16UIListWindowPlus6updateEf = 0x5a170c;
_ZN9MoveFBase4funcEf = 0x5a1738;
_ZN9MoveFBase4moveEiff = 0x5a1800;
_ZN9MoveFBase4stopEi = 0x5a1838;
_ZN9MoveFBase4stopEv = 0x5a18b8;
_ZN9MoveFBase4waitEif = 0x5a18f0;
_ZN9MoveFBase7moveAbsEff = 0x5a1a14;
_ZN9MoveFBase7moveAbsEiff = 0x5a1a74;
_ZN9MoveFBase7moveCosEiff = 0x5a1b28;
_ZN9MoveFBase7moveFrmEff = 0x5a1b78;
_ZN9MoveFBase7moveFrmEiff = 0x5a1c68;
_ZN9MoveFBase7moveSinEiff = 0x5a1d34;
_ZN9MoveFBaseC1Ef = 0x5a1ddc;
_ZN9MoveFBaseC1Ev = 0x5a1df8;
_ZN9MoveFBaseD1Ev = 0x5a1e20;
_ZN9MoveVBase10moveCosAbsERKN2nn4math4VEC3Ef = 0x5a1e24;
_ZN9MoveVBase10moveCosAbsEiRKN2nn4math4VEC3Ef = 0x5a1eb4;
_ZN9MoveVBase10moveCosSinEiRKN2nn4math4VEC3Ef = 0x5a1f24;
_ZN9MoveVBase10moveFrmAbsERKN2nn4math4VEC3Ef = 0x5a1f94;
_ZN9MoveVBase10moveFrmAbsEiRKN2nn4math4VEC3Ef = 0x5a2040;
_ZN9MoveVBase10moveSinAbsERKN2nn4math4VEC3Ef = 0x5a2104;
_ZN9MoveVBase10moveSinAbsEiRKN2nn4math4VEC3Ef = 0x5a2264;
_ZN9MoveVBase11moveSin2AbsEiRKN2nn4math4VEC3Efff = 0x5a22d4;
_ZN9MoveVBase13moveCosSinAbsERKN2nn4math4VEC3Ef = 0x5a2350;
_ZN9MoveVBase13moveCosSinAbsEiRKN2nn4math4VEC3Ef = 0x5a23e0;
_ZN9MoveVBase4funcEf = 0x5a2450;
_ZN9MoveVBase4moveEiRKN2nn4math4VEC3Ef = 0x5a259c;
_ZN9MoveVBase4stopEi = 0x5a260c;
_ZN9MoveVBase4stopEv = 0x5a269c;
_ZN9MoveVBase4waitEif = 0x5a26d4;
_ZN9MoveVBase6jumpFAEifffRKN2nn4math4VEC3E = 0x5a2724;
_ZN9MoveVBase6jumpFSEifffRKN2nn4math4VEC3E = 0x5a280c;
_ZN9MoveVBase6jumpFTEifffRKN2nn4math4VEC3E = 0x5a2890;
_ZN9MoveVBase7moveAbsEiRKN2nn4math4VEC3Ef = 0x5a2a40;
_ZN9MoveVBase7moveCosEiRKN2nn4math4VEC3Ef = 0x5a2ab0;
_ZN9MoveVBase7moveFrmEiRKN2nn4math4VEC3Ef = 0x5a2aec;
_ZN9MoveVBase7moveSinEiRKN2nn4math4VEC3Ef = 0x5a2b28;
_ZN9MoveVBaseC1ERKN2nn4math4VEC3E = 0x5a2b64;
_ZN9MoveVBaseC1Ev = 0x5a2b9c;
_ZN9MoveVBaseD1Ev = 0x5a2bdc;
_ZN9MoveFBase4moveEff = 0x5a2be0;
_ZN9MoveWorkFC1Ev = 0x5a2ef4;
_ZN9MoveWorkFD1Ev = 0x5a2f30;
_ZN9MoveVBase10moveCosSinERKN2nn4math4VEC3Ef = 0x5a2f34;
_ZN9MoveVBase4moveERKN2nn4math4VEC3Ef = 0x5a3030;
_ZN9MoveVBase7moveCosERKN2nn4math4VEC3Ef = 0x5a354c;
_ZN9MoveVBase7moveFrmERKN2nn4math4VEC3Ef = 0x5a3648;
_ZN9MoveVBase7moveSinERKN2nn4math4VEC3Ef = 0x5a374c;
_ZN9ShadowSys11entryCasterEP11FieldObjMdlffffff = 0x5ae648;
_ZN9ShadowSys12setShadowTexEPN4adsl3gfx5ModelE = 0x5ae698;
_ZN9ShadowSys4drawEP13FieldMainBasePN4adsl3gfx12SceneContextE = 0x5ae74c;
_ZN9ShadowSys4initEP13FieldMainBaseji = 0x5af474;
_ZN9ShadowSys4termEv = 0x5af524;
_ZN9ShadowSys5buildEP13FieldMainBaseP6MemAlcj = 0x5af614;
_ZN9ShadowSys6updateEv = 0x5afc98;
_ZN9ShadowSysC1Ev = 0x5b0880;
_ZN9ShadowSysD1Ev = 0x5b08fc;
_ZN9StdRender15setRenderTargetEjbb = 0x5b130c;
_ZN9StdRender4initEP10MemAlcBaseij = 0x5b1464;
_ZN9StdRender4termEv = 0x5b1790;
_ZNK10FieldObjCA8isCADispEv = 0x5c6418;
_ZNK11FieldCamera6getPosEPN2nn4math4VEC3E = 0x5c798c;
_ZNK12CalcEquipEff12getWeaponPowERK6DataPc13EquipSlotType = 0x5c8dc4;
_ZNK12CalcEquipEff6getDefERK6DataPc = 0x5c8fc0;
_ZNK12CalcEquipEff8getDefUpERK6DataPc = 0x5c9174;
_ZNK13CmdCacheMulti7useSaveEijb = 0x5ce494;
_ZNK13MessageWriter13getRectHeightEv = 0x5ce850;
_ZNK16BinGlu3AcsIdxHdr6getOfsEjPjPh = 0x5d09b8;
_ZNK2nn4ulcd3CTR12StereoCamera25GetCoefficientForParallaxEv = 0x5e0b5c;
_ZNK2nw2ut14ResDicPatricia3GetEPKcj = 0x5e0d7c;
_ZNK2nw3lyt13AnimTransform12GetFrameSizeEv = 0x5e0fa0;
_ZNK2nw3lyt8Material12GetTexMapAryEv = 0x5e2b34;
_ZNK2nw3lyt8Material12GetTexSRTAryEv = 0x5e2b3c;
_ZN4adsl3gfx13RenderContext11ClearBufferEjRKN2nw2ut10FloatColorEf = 0x5e5f6c;
_ZNK4adsl3gfx3res25DefaultShaderAutoSelectorclENS1_8ResModelENS1_11ResMaterialE = 0x5e7f74;
_ZNK4adsl3gfx6Camera17GetTargetPositionEv = 0x5e8064;
_ZNK4adsl3gfx6Camera6GetFarEv = 0x5e80ec;
_ZNK4adsl3gfx6Camera7GetNearEv = 0x5e8110;
_ZNK5rsLib10ColorBlink3getEv = 0x5ebee0;
_ZNK6Backup9errorCodeEv = 0x5ebfdc;
_ZNK6CtrBtn3getEi = 0x5ed8ec;
_ZNK7DispBuf12getDispBufIdEi = 0x5eee58;
_ZNK8GameWork10getItemNumEt = 0x5f0dbc;
_ZNK8GameWork10isHardModeEv = 0x5f0e0c;
_ZNK8GameWork11getEquipMaxEv = 0x5f0e40;
_ZNK8GameWork11isNewPuzzleEh = 0x5f0e74;
_ZNK8GameWork13getRealAreaNoEv = 0x5f0e8c;
_ZNK8GameWork13getUseItemMaxEv = 0x5f0e98;
_ZNK8GameWork13isClearPuzzleEh = 0x5f0ecc;
_ZNK8GameWork14getEquipStatusEP6DataPchth = 0x5f0ee0;
_ZNK8GameWork14isNewColosseumEh = 0x5f0f50;
_ZNK8GameWork15getBadgeBitFlagEv = 0x5f0f6c;
_ZNK8GameWork16isPlayablePuzzleEh = 0x5f0f78;
_ZNK8GameWork18getPuzzleClearTimeEh = 0x5f0fa8;
_ZNK8GameWork20getColosseumBestTurnEh = 0x5f0fb4;
_ZNK9CellAnime12getSeqPtnFrmEii = 0x5f14a0;
_ZNK9CellAnime13getConstColorEi = 0x5f14f8;
_ZNK9CellAnime18getPtnFromSeqPtnNoEht = 0x5f1504;
_ZNK9MoveFBase6isBusyEv = 0x5f1820;
_ZNK9MoveVBase6isBusyEv = 0x5f1874;
_ZNK9MoveWorkF4calcEf = 0x5f18e4;
_ZTv0_n12_N11CtrFileBaseD0Ev = 0x5f5388;
_ZTv0_n12_N11CtrFileBaseD1Ev = 0x5f53a8;
__hardfp_acosf = 0x5f59e8;
__hardfp_asinf = 0x5f5b14;
__hardfp_atan2f = 0x5f5c4c;
__hardfp_atof = 0x5f5ec0;
__hardfp_ceilf = 0x5f5f08;
__hardfp_expf = 0x5f5f98;
__hardfp_floorf = 0x5f61c8;
__hardfp_fmodf = 0x5f6264;
__hardfp_logf = 0x5f6340;
glDisable = 0x60a29c;
glEnable = 0x60d0b8;
glGetFramebufferAttachmentParameteriv = 0x60d364;
glGetIntegerv = 0x60d448;
nngxAdd3DCommand = 0x611f00;
nngxAddMemoryFillCommand = 0x612020;
nngxCheckVSync = 0x61206c;
nngxClearCmdlist = 0x612100;
nngxFlush3DCommand = 0x6122bc;
nngxGetDisplaybufferParameteri = 0x612464;
nngxSetCmdlistParameteri = 0x612538;
nngxSetDisplayMode = 0x612578;
nngxStopCmdlist = 0x612680;
nnroAeabiAtexit_ = 0x612d70;
__aeabi_l2d = 0x63c380;
__aeabi_l2f = 0x63c4f4;
__aeabi_d2lz = 0x63c714;
_ZN5Badge18DFX_SYMBOL_TBL_BTLE = 0x63d000;
_ZN5Badge19DFX_SYMBOL_TBL_MENUE = 0x63d00e;
_ZN5Badge23DFX_SYMBOL_LOAD_TBL_BTLE = 0x63d01c;
_ZN5Badge24DFX_SYMBOL_LOAD_TBL_MENUE = 0x63d02c;
_ZN3Grp14DEF_ORTHO_NEARE = 0x658014;
_ZN3Grp13DEF_ORTHO_FARE = 0x658018;
_ZN10MessageSys16_BtlMenuFontSizeE = 0x6581a8;
_ZN19MsgWndPosCalculator19_TailBorderYDefaultE = 0x658264;
_ZN16RenderDrawSysDFX18RENDERINFO_NUM_DEFE = 0x658f78;
_ZN16RenderDrawSysDFX18RENDERPACK_NUM_DEFE = 0x658f7a;
_ZN11GlobalEvent15_CmdFuncTblSizeE = 0x65b17c;
_ZN8UICommon19DEFAULT_KEY_REP_FRME = 0x6731e4;
_ZN2nn4math8internal10gSinCosTblE = 0x6971a0;
_ZTI11CtrFileBase = 0x69badc;
_ZTI11GlobalEvent = 0x69bbb4;
_ZTI15MsgDataAcsrBase = 0x69c2b0;
_ZTI16UIListWindowPlus = 0x69c3a8;
_ZTI5CtrFS = 0x69c970;
_ZTI6MemAlc = 0x69ca08;
_ZTI7DfxUnit = 0x69ca78;
_ZTI9CellAnime = 0x69ccb4;
_ZTI9CtrJobMan = 0x69ccc8;
_ZTI9MoveFBase = 0x69cd48;
_ZTI9MoveVBase = 0x69cd50;
_ZTI9MoveWorkF = 0x69cd58;
_ZTIN10__cxxabiv117__class_type_infoE = 0x69cf90;
_ZTIN10__cxxabiv120__si_class_type_infoE = 0x69cf9c;
_ZTIN10__cxxabiv121__vmi_class_type_infoE = 0x69cfa8;
_ZTIN4__rw15__rw_facet_baseE = 0x69f280;
_ZTIN4__rw15__rw_punct_dataIcEE = 0x69f28c;
_ZTIN4__rw17__rw_collate_dataIcEE = 0x69f294;
_ZTIN4__rw17__rw_collate_implIcEE = 0x69f29c;
_ZTIN4__rw17__rw_ctype_helperIcEE = 0x69f2a8;
_ZTIN4__rw17__rw_synchronizedE = 0x69f2b0;
_ZTIN4__rw18__rw_numpunct_implIcEE = 0x69f2b8;
_ZTIN4__rw23__rw_numpunct_impl_baseE = 0x69f2c4;
_ZTIN4__rw23__rw_numpunct_impl_dataIcEE = 0x69f2cc;
_ZTINSt6locale5facetE = 0x6a0158;
_ZTISt10ctype_base = 0x6a0164;
_ZTISt12codecvt_base = 0x6a016c;
_ZTISt12ctype_bynameIcE = 0x6a0174;
_ZTISt13messages_base = 0x6a0180;
_ZTISt14__rw_exception = 0x6a0188;
_ZTISt14codecvt_bynameIwcSt11__mbstate_tE = 0x6a0194;
_ZTISt14collate_bynameIcE = 0x6a01a0;
_ZTISt18__rw_messages_base = 0x6a01ac;
_ZTISt5ctypeIcE = 0x6a01b8;
_ZTISt7codecvtIwcSt11__mbstate_tE = 0x6a01e0;
_ZTISt7collateIcE = 0x6a0200;
_ZTISt8messagesIcE = 0x6a0220;
_ZTISt8numpunctIcE = 0x6a0240;
_ZTISt9exception = 0x6a0260;
_ZTISt9type_info = 0x6a0268;
_ZTSN10__cxxabiv117__class_type_infoE = 0x6a2b66;
_ZTSN10__cxxabiv120__si_class_type_infoE = 0x6a2b88;
_ZTSN10__cxxabiv121__vmi_class_type_infoE = 0x6a2bad;
_ZTSN4__rw15__rw_facet_baseE = 0x6aa14c;
_ZTSN4__rw15__rw_punct_dataIcEE = 0x6aa165;
_ZTSN4__rw17__rw_collate_dataIcEE = 0x6aa181;
_ZTSN4__rw17__rw_collate_implIcEE = 0x6aa19f;
_ZTSN4__rw17__rw_ctype_helperIcEE = 0x6aa1bd;
_ZTSN4__rw17__rw_synchronizedE = 0x6aa1db;
_ZTSN4__rw18__rw_numpunct_implIcEE = 0x6aa1f6;
_ZTSN4__rw23__rw_numpunct_impl_baseE = 0x6aa215;
_ZTSN4__rw23__rw_numpunct_impl_dataIcEE = 0x6aa236;
_ZTSNSt6locale5facetE = 0x6acb66;
_ZTSSt10ctype_base = 0x6acb78;
_ZTSSt12codecvt_base = 0x6acb87;
_ZTSSt12ctype_bynameIcE = 0x6acb98;
_ZTSSt13messages_base = 0x6acbac;
_ZTSSt14__rw_exception = 0x6acbbe;
_ZTSSt14codecvt_bynameIwcSt11__mbstate_tE = 0x6acbd1;
_ZTSSt14collate_bynameIcE = 0x6acbf7;
_ZTSSt18__rw_messages_base = 0x6acc0d;
_ZTSSt5ctypeIcE = 0x6acc24;
_ZTSSt7codecvtIwcSt11__mbstate_tE = 0x6acc30;
_ZTSSt7collateIcE = 0x6acc4e;
_ZTSSt8messagesIcE = 0x6acc5c;
_ZTSSt8numpunctIcE = 0x6acc6b;
_ZTSSt9exception = 0x6acc7a;
_ZTSSt9type_info = 0x6acc87;
_ZTV10CtrFReadEx = 0x6acff4;
_ZTV15CtrLoadModuleEx = 0x6b5fe8;
_ZTV3Dfx = 0x6b7b68;
_ZTV6MemAlc = 0x6b7e84;
_ZTV8CtrFRead = 0x6b8db4;
_ZTV9MoveWorkF = 0x6b9f4c;
_ZTVN10__cxxabiv117__class_type_infoE = 0x6bb6f4;
_ZTVN10__cxxabiv120__si_class_type_infoE = 0x6bb704;
_ZTVN10__cxxabiv121__vmi_class_type_infoE = 0x6bb714;
_ZTVNSt6locale5facetE = 0x6c3c8c;
_ZTVSt12ctype_bynameIcE = 0x6c3ca0;
_ZTVSt14__rw_exception = 0x6c3cd4;
_ZTVSt14codecvt_bynameIwcSt11__mbstate_tE = 0x6c3ce8;
_ZTVSt14collate_bynameIcE = 0x6c3d18;
_ZTVSt5ctypeIcE = 0x6c3d38;
_ZTVSt7collateIcE = 0x6c3d6c;
_ZTVSt8messagesIcE = 0x6c3d8c;
_ZTVSt8numpunctIcE = 0x6c3dac;
_ZTVSt9exception = 0x6c3dd4;
_ZZN4adsl3gfx3res17ResDepthOperation11SetTestFuncENS2_8TestFuncEE5table = 0x6c3e6c;
__ARM__ZN4adsl3gfx3res17ResBlendOperation12SetBlendModeEb_anon0 = 0x6c3ea8;
_ZN5Badge13STOCK_POS_TBLE = 0x6cd6d8;
_ZN6Backup3_fsE = 0x6cecb0;
_ZN6Backup8_bufHeadE = 0x6cecc4;
_ZN8GxMemAlc3_meE = 0x6ced48;
_ZN13MessageDrawer13_BaseFontSizeE = 0x6cedf0;
_ZN10MessageSys9_RubyModeE = 0x6cee28;
_ZN6DfxSys10_GAMESPEEDE = 0x6cf85a;
_ZN9AppletMan5Sleep8_disableE = 0x6cf939;
_ZN9AppletMan8HomeMenu13_callbackFuncE = 0x6cf93c;
_ZN9AppletMan8HomeMenu7NixSign6_stateE = 0x6cf940;
gTaskMainMan = 0x6cf9f0;
_ZN8UICommon17DEFAULT_MSG_SCALEE = 0x6cfa08;
_ZN11FieldSystem4_SysE = 0x6d1648;
_ZN7MComSys5_instE = 0x6d1e38;
gRand = 0x6d1f40;
_ZN4adsl3gfx13AnimEvaluator10s_TypeInfoE = 0x6d2010;
_ZN4adsl3gfx14GraphicsDevice19s_RenderBufferWidthE = 0x6d20cc;
_ZN4adsl3gfx14GraphicsDevice20s_RenderBufferHeightE = 0x6d20d0;
_ZN4adsl3gfx14GraphicsDevice10s_WScale24E = 0x6d2128;
_ZN4adsl3gfx13IRenderTarget10s_TypeInfoE = 0x6d2148;
_ZN4adsl3gfx5Light10s_TypeInfoE = 0x6d2160;
_ZN4adsl3gfx5Model10s_TypeInfoE = 0x6d21a0;
_ZN4adsl3gfx13SkeletalModel10s_TypeInfoE = 0x6d22b0;
_ZN4adsl3gfx22TransformAnimEvaluator10s_TypeInfoE = 0x6d22f0;
__cb_current_command_buffer = 0x6d23b8;
__cb_current_max_command_buffer = 0x6d23bc;
__dmpgl_allocator = 0x6d23c8;
__dmpgl_deallocator = 0x6d23cc;
_ZN2nw3lyt7TextBox10s_TypeInfoE = 0x6d3248;
_ZGVZN12CtrNullNwAlc3GetEvE4inst = 0x6e12f4;
_ZZN12CtrNullNwAlc3GetEvE4inst = 0x6e12f8;
_ZGVZN2nn4math4VEC23OneEvE3one = 0x6e1314;
_ZZN2nn4math4VEC23OneEvE3one = 0x6e1318;
_ZGVZN2nn4math4VEC24ZeroEvE4zero = 0x6e1320;
_ZZN2nn4math4VEC24ZeroEvE4zero = 0x6e1324;
_ZGVZN2nn4math4VEC33OneEvE3one = 0x6e132c;
_ZGVZN2nn4math4VEC34ZeroEvE4zero = 0x6e1330;
_ZGVZN2nn4math4VEC44ZeroEvE4zero = 0x6e1334;
_ZGVZN2nn4math5MTX348IdentityEvE8identity = 0x6e1340;
_ZGVZN2nn4math5MTX448IdentityEvE8identity = 0x6e1344;
_ZZNKSt6locale2id7_C_initEvE9_C_id_gen = 0x6e1358;
_ZGVZSt13__rw_get_catsvE11__open_cats = 0x6e135c;
_ZZSt13__rw_get_catsvE11__open_cats = 0x6e1360;
_ZN5Badge5PARAME = 0x6e14a8;
gBtlBootInfo = 0x6e2378;
_ZN6Backup9_bufData1E = 0x6e3800;
gGameWork = 0x6e7cd0;
gGrp = 0x6e9820;
_ZN13MessageDrawer8_FontResE = 0x6ea218;
_ZN13MessageDrawer12_FontDrawBufE = 0x6ea234;
_ZN13MessageDrawer5_FontE = 0x6ea250;
_ZN9GfxScnSys17ScnObjCreateParam9DEF_PARAME = 0x6ea308;
_ZN9DfxLineBB7_CAMPOSE = 0x6ea37c;
_ZN6DfxSys9_CAMSHAKEE = 0x6ea394;
gSndSys = 0x6eb568;
gPzlWork = 0x6ed6e0;
gHBtlBootInfo = 0x6ed8bc;
gMem = 0x6ed9b8;
gBtn = 0x6eda78;
gTp = 0x6edac0;
gGyr = 0x6edae8;
gMemCtr = 0x6ef03c;
_ZNSs9__nullrefE = 0x711f88;
_ZZN2nn4math4VEC33OneEvE3one = 0x711fe0;
_ZZN2nn4math4VEC34ZeroEvE4zero = 0x711fec;
_ZZN2nn4math4VEC44ZeroEvE4zero = 0x711ff8;
_ZZN2nn4math5MTX348IdentityEvE8identity = 0x712044;
_ZZN2nn4math5MTX448IdentityEvE8identity = 0x712074;