/* autogenerated from typeinfo */

/* __cxxabiv1::__si_class_type_info */

_ZTI10BigRockAct = 0x0069b764;
_ZTS10BigRockAct = 0x006a0270;
_ZTI10BigWoodAct = 0x0069b770;
_ZTS10BigWoodAct = 0x006a027d;
_ZTI10BtlDfxUnit = 0x0069b77c;
_ZTS10BtlDfxUnit = 0x006a028a;
_ZTI10BtlObjBase = 0x0069b788;
_ZTS10BtlObjBase = 0x006a0297;
_ZTI10BtlObjBlur = 0x0069b794;
_ZTS10BtlObjBlur = 0x006a02a4;
_ZTI10BtlObjMove = 0x0069b7a0;
_ZTS10BtlObjMove = 0x006a02b1;
_ZTI10BtlPcAtkEH = 0x0069b7ac;
_ZTS10BtlPcAtkEH = 0x006a02be;
_ZTI10BtlPcAtkEJ = 0x0069b7b8;
_ZTS10BtlPcAtkEJ = 0x006a02cb;
_ZTI10BtlPcAtkSH = 0x0069b7c4;
_ZTS10BtlPcAtkSH = 0x006a02d8;
_ZTI10BtlPcAtkSJ = 0x0069b7d0;
_ZTS10BtlPcAtkSJ = 0x006a02e5;
_ZTI10BtlSndTask = 0x0069b7dc;
_ZTS10BtlSndTask = 0x006a02f2;
_ZTI10BtlVramAlc = 0x0069b7e8;
_ZTS10BtlVramAlc = 0x006a02ff;
_ZTI10CtrArcFile = 0x0069b7f4;
_ZTS10CtrArcFile = 0x006a030c;
_ZTI10CtrFReadEx = 0x0069b800;
_ZTS10CtrFReadEx = 0x006a0319;
_ZTI10CtrFileTmpI16BinGlu3AcsIdxHdrE = 0x0069b80c;
_ZTS10CtrFileTmpI16BinGlu3AcsIdxHdrE = 0x006a0326;
_ZTI10DLuigiHige = 0x0069b818;
_ZTS10DLuigiHige = 0x006a0347;
_ZTI10DfxPrimMan = 0x0069b824;
_ZTS10DfxPrimMan = 0x006a0354;
_ZTI10DreamBlock = 0x0069b830;
_ZTS10DreamBlock = 0x006a0361;
_ZTI10DreamEvent = 0x0069b83c;
_ZTS10DreamEvent = 0x006a036e;
_ZTI10DreamLuigi = 0x0069b848;
_ZTS10DreamLuigi = 0x006a037b;
_ZTI10DreamMainL = 0x0069b854;
_ZTS10DreamMainL = 0x006a0388;
_ZTI10DreamMainU = 0x0069b860;
_ZTS10DreamMainU = 0x006a0395;
_ZTI10DreamMario = 0x0069b86c;
_ZTS10DreamMario = 0x006a03a2;
_ZTI10FieldBlock = 0x0069b878;
_ZTS10FieldBlock = 0x006a03af;
_ZTI10FieldBoard = 0x0069b884;
_ZTS10FieldBoard = 0x006a03bc;
_ZTI10FieldEnemy = 0x0069b8b0;
_ZTS10FieldEnemy = 0x006a03d6;
_ZTI10FieldLuigi = 0x0069b8c4;
_ZTS10FieldLuigi = 0x006a03f0;
_ZTI10FieldMainL = 0x0069b8d0;
_ZTS10FieldMainL = 0x006a03fd;
_ZTI10FieldMainU = 0x0069b8dc;
_ZTS10FieldMainU = 0x006a040a;
_ZTI10FieldMario = 0x0069b8e8;
_ZTS10FieldMario = 0x006a0417;
_ZTI10FieldObjCA = 0x0069b8f4;
_ZTS10FieldObjCA = 0x006a0424;
_ZTI10FieldPCSub = 0x0069b900;
_ZTS10FieldPCSub = 0x006a0431;
_ZTI10FieldTimer = 0x0069b90c;
_ZTS10FieldTimer = 0x006a043e;
_ZTI10GimmickIce = 0x0069b918;
_ZTS10GimmickIce = 0x006a044b;
_ZTI10HigeTopChr = 0x0069b92c;
_ZTS10HigeTopChr = 0x006a0465;
_ZTI10LocalEvent = 0x0069b938;
_ZTS10LocalEvent = 0x006a0472;
_ZTI10MABallCtrl = 0x0069b944;
_ZTS10MABallCtrl = 0x006a047f;
_ZTI10MAConeCtrl = 0x0069b950;
_ZTS10MAConeCtrl = 0x006a048c;
_ZTI10MBObjMario = 0x0069b95c;
_ZTS10MBObjMario = 0x006a0499;
_ZTI10MBResource = 0x0069b968;
_ZTS10MBResource = 0x006a04a6;
_ZTI10MemAlcUnit = 0x0069b97c;
_ZTS10MemAlcUnit = 0x006a04c0;
_ZTI10MiracleChr = 0x0069b988;
_ZTS10MiracleChr = 0x006a04cd;
_ZTI10RealCAInfo = 0x0069b994;
_ZTS10RealCAInfo = 0x006a04da;
_ZTI10RealPlayer = 0x0069b9a0;
_ZTS10RealPlayer = 0x006a04e7;
_ZTI10RealSystem = 0x0069b9ac;
_ZTS10RealSystem = 0x006a04f4;
_ZTI10StateIntro = 0x0069b9c0;
_ZTS10StateIntro = 0x006a050e;
_ZTI10SubGimmick = 0x0069b9cc;
_ZTS10SubGimmick = 0x006a051b;
_ZTI10yaMarioBox = 0x0069b9d8;
_ZTS10yaMarioBox = 0x006a0528;
_ZTI11BtlAtkMJCam = 0x0069b9e4;
_ZTS11BtlAtkMJCam = 0x006a0535;
_ZTI11BtlDropCoin = 0x0069b9f0;
_ZTS11BtlDropCoin = 0x006a0543;
_ZTI11BtlListTmplI10BtlObjBaseE = 0x0069ba04;
_ZTS11BtlListTmplI10BtlObjBaseE = 0x006a055f;
_ZTI11BtlListTmplI10BtlSndTaskE = 0x0069ba10;
_ZTS11BtlListTmplI10BtlSndTaskE = 0x006a057b;
_ZTI11BtlListTmplI11BtlDropCoinE = 0x0069ba1c;
_ZTS11BtlListTmplI11BtlDropCoinE = 0x006a0597;
_ZTI11BtlListTmplI11BtlTaskBaseE = 0x0069ba28;
_ZTS11BtlListTmplI11BtlTaskBaseE = 0x006a05b4;
_ZTI11BtlListTmplI12BtlObjDtBaseE = 0x0069ba34;
_ZTS11BtlListTmplI12BtlObjDtBaseE = 0x006a05d1;
_ZTI11BtlListTmplI13BtlDfxWorkPosE = 0x0069ba40;
_ZTS11BtlListTmplI13BtlDfxWorkPosE = 0x006a05ef;
_ZTI11BtlListTmplI6BtlActE = 0x0069ba4c;
_ZTS11BtlListTmplI6BtlActE = 0x006a060e;
_ZTI11BtlListTmplI6BtlHitE = 0x0069ba58;
_ZTS11BtlListTmplI6BtlHitE = 0x006a0625;
_ZTI11BtlListTmplI8BtlDfxCAE = 0x0069ba64;
_ZTS11BtlListTmplI8BtlDfxCAE = 0x006a063c;
_ZTI11BtlListTmplI9BtlDfxMdlE = 0x0069ba70;
_ZTS11BtlListTmplI9BtlDfxMdlE = 0x006a0655;
_ZTI11BtlListTmplIN5Badge7ObjBaseEE = 0x0069ba7c;
_ZTS11BtlListTmplIN5Badge7ObjBaseEE = 0x006a066f;
_ZTI11BtlListTmplIN5Badge9DfxHandleEE = 0x0069ba88;
_ZTS11BtlListTmplIN5Badge9DfxHandleEE = 0x006a068f;
_ZTI11BtlListTmplIN6BtlMon16SpEffActTimeStopEE = 0x0069ba94;
_ZTS11BtlListTmplIN6BtlMon16SpEffActTimeStopEE = 0x006a06b1;
_ZTI11BtlMainFunc = 0x0069baa0;
_ZTS11BtlMainFunc = 0x006a06dc;
_ZTI11BtlObjHpPnl = 0x0069baac;
_ZTS11BtlObjHpPnl = 0x006a06ea;
_ZTI11BtlPcCmdBlk = 0x0069bab8;
_ZTS11BtlPcCmdBlk = 0x006a06f8;
_ZTI11BtlTaskBase = 0x0069bac4;
_ZTS11BtlTaskBase = 0x006a0706;
_ZTI11BtlTaskList = 0x0069bad0;
_ZTS11BtlTaskList = 0x006a0714;
_ZTI11CtrFileBase = 0x0069badc;
_ZTS11CtrFileBase = 0x006a0722;
_ZTI11CtrSaveFile = 0x0069bae8;
_ZTS11CtrSaveFile = 0x006a0730;
_ZTI11CtrSaveRead = 0x0069baf4;
_ZTS11CtrSaveRead = 0x006a073e;
_ZTI11DreamCAInfo = 0x0069bb00;
_ZTS11DreamCAInfo = 0x006a074c;
_ZTI11DreamPlayer = 0x0069bb0c;
_ZTS11DreamPlayer = 0x006a075a;
_ZTI11DreamSystem = 0x0069bb18;
_ZTS11DreamSystem = 0x006a0768;
_ZTI11FieldCAList = 0x0069bb2c;
_ZTS11FieldCAList = 0x006a0784;
_ZTI11FieldColChr = 0x0069bb60;
_ZTS11FieldColChr = 0x006a07ae;
_ZTI11FieldMapMdl = 0x0069bb6c;
_ZTS11FieldMapMdl = 0x006a07bc;
_ZTI11FieldNumber = 0x0069bb80;
_ZTS11FieldNumber = 0x006a07d8;
_ZTI11FieldObjMdl = 0x0069bb8c;
_ZTS11FieldObjMdl = 0x006a07e6;
_ZTI11FieldSystem = 0x0069bba0;
_ZTS11FieldSystem = 0x006a0802;
_ZTI11GlobalEvent = 0x0069bbb4;
_ZTS11GlobalEvent = 0x006a081e;
_ZTI11HookShotAct = 0x0069bbc0;
_ZTS11HookShotAct = 0x006a082c;
_ZTI11MainGimmick = 0x0069bbd4;
_ZTS11MainGimmick = 0x006a0848;
_ZTI11RenderQueue = 0x0069bbe0;
_ZTS11RenderQueue = 0x006a0856;
_ZTI11RotBoardAct = 0x0069bbec;
_ZTS11RotBoardAct = 0x006a0864;
_ZTI11TorBlockAct = 0x0069bc00;
_ZTS11TorBlockAct = 0x006a0880;
_ZTI12BomHitBroken = 0x0069bc14;
_ZTS12BomHitBroken = 0x006a089c;
_ZTI12BtlAISysBase = 0x0069bc20;
_ZTS12BtlAISysBase = 0x006a08ab;
_ZTI12BtlDfxHandle = 0x0069bc2c;
_ZTS12BtlDfxHandle = 0x006a08ba;
_ZTI12BtlMainProxy = 0x0069bc38;
_ZTS12BtlMainProxy = 0x006a08c9;
_ZTI12BtlObjCancel = 0x0069bc44;
_ZTS12BtlObjCancel = 0x006a08d8;
_ZTI12BtlObjCursor = 0x0069bc50;
_ZTS12BtlObjCursor = 0x006a08e7;
_ZTI12BtlObjDmgNum = 0x0069bc5c;
_ZTS12BtlObjDmgNum = 0x006a08f6;
_ZTI12BtlObjDtBase = 0x0069bc68;
_ZTS12BtlObjDtBase = 0x006a0905;
_ZTI12BtlObjString = 0x0069bc74;
_ZTS12BtlObjString = 0x006a0914;
_ZTI12BtlPcDefJump = 0x0069bc80;
_ZTS12BtlPcDefJump = 0x006a0923;
_ZTI12BtlPcDmgDown = 0x0069bc8c;
_ZTS12BtlPcDmgDown = 0x006a0932;
_ZTI12BtlPcDmgSlip = 0x0069bc98;
_ZTS12BtlPcDmgSlip = 0x006a0941;
_ZTI12BtlPcDmgToge = 0x0069bca4;
_ZTS12BtlPcDmgToge = 0x006a0950;
_ZTI12BtlPcUseItem = 0x0069bcb0;
_ZTS12BtlPcUseItem = 0x006a095f;
_ZTI12ChaseGimmick = 0x0069bcbc;
_ZTS12ChaseGimmick = 0x006a096e;
_ZTI12CtrFReadBase = 0x0069bcd0;
_ZTS12CtrFReadBase = 0x006a098c;
_ZTI12CtrNullNwAlc = 0x0069bcdc;
_ZTS12CtrNullNwAlc = 0x006a099b;
_ZTI12CtrSaveWrite = 0x0069bce8;
_ZTS12CtrSaveWrite = 0x006a09aa;
_ZTI12DLuigiRotBed = 0x0069bcf4;
_ZTS12DLuigiRotBed = 0x006a09b9;
_ZTI12DLuigiSwitch = 0x0069bd00;
_ZTS12DLuigiSwitch = 0x006a09c8;
_ZTI12FieldDfxUnit = 0x0069bd54;
_ZTS12FieldDfxUnit = 0x006a0a04;
_ZTI12FieldGetItem = 0x0069bd80;
_ZTS12FieldGetItem = 0x006a0a22;
_ZTI12GimmickEmpty = 0x0069bda4;
_ZTS12GimmickEmpty = 0x006a0a5e;
_ZTI12HangFloorAct = 0x0069bdb0;
_ZTS12HangFloorAct = 0x006a0a6d;
_ZTI12MAJumbleCtrl = 0x0069bdbc;
_ZTS12MAJumbleCtrl = 0x006a0a7c;
_ZTI12MAPillarCtrl = 0x0069bdc8;
_ZTS12MAPillarCtrl = 0x006a0a8b;
_ZTI12MiracleObjCA = 0x0069bdf4;
_ZTS12MiracleObjCA = 0x006a0aa9;
_ZTI12RealGuideMap = 0x0069be00;
_ZTS12RealGuideMap = 0x006a0ab8;
_ZTI12SmallRockAct = 0x0069be14;
_ZTS12SmallRockAct = 0x006a0ad6;
_ZTI12SmallWoodAct = 0x0069be20;
_ZTS12SmallWoodAct = 0x006a0ae5;
_ZTI12SplMoveObjCA = 0x0069be2c;
_ZTS12SplMoveObjCA = 0x006a0af4;
_ZTI12TaskMainBase = 0x0069be38;
_ZTS12TaskMainBase = 0x006a0b03;
_ZTI12UIListWindow = 0x0069be44;
_ZTS12UIListWindow = 0x006a0b12;
_ZTI12VramAlcRange = 0x0069be50;
_ZTS12VramAlcRange = 0x006a0b21;
_ZTI13BtlAtkMJLuigi = 0x0069be64;
_ZTS13BtlAtkMJLuigi = 0x006a0b3f;
_ZTI13BtlAtkMJMario = 0x0069be70;
_ZTS13BtlAtkMJMario = 0x006a0b4f;
_ZTI13BtlDfxWorkPos = 0x0069be8c;
_ZTS13BtlDfxWorkPos = 0x006a0b7f;
_ZTI13BtlLockMemAlc = 0x0069be98;
_ZTS13BtlLockMemAlc = 0x006a0b8f;
_ZTI13BtlObjBlkName = 0x0069bea4;
_ZTS13BtlObjBlkName = 0x006a0b9f;
_ZTI13BtlObjCoinPnl = 0x0069beb0;
_ZTS13BtlObjCoinPnl = 0x006a0baf;
_ZTI13BtlObjDefIcon = 0x0069bebc;
_ZTS13BtlObjDefIcon = 0x006a0bbf;
_ZTI13BtlObjEstStar = 0x0069bec8;
_ZTS13BtlObjEstStar = 0x006a0bcf;
_ZTI13BtlObjListWnd = 0x0069bed4;
_ZTS13BtlObjListWnd = 0x006a0bdf;
_ZTI13BtlObjTrgName = 0x0069bee0;
_ZTS13BtlObjTrgName = 0x006a0bef;
_ZTI13CtrLoadModule = 0x0069beec;
_ZTS13CtrLoadModule = 0x006a0bff;
_ZTI13CtrModuleFile = 0x0069bef8;
_ZTS13CtrModuleFile = 0x006a0c0f;
_ZTI13CtrSaveFormat = 0x0069bf04;
_ZTS13CtrSaveFormat = 0x006a0c1f;
_ZTI13DLuigiNoseRot = 0x0069bf10;
_ZTS13DLuigiNoseRot = 0x006a0c2f;
_ZTI13DLuigiNoseSnz = 0x0069bf1c;
_ZTS13DLuigiNoseSnz = 0x006a0c3f;
_ZTI13DreamGuideMap = 0x0069bf28;
_ZTS13DreamGuideMap = 0x006a0c4f;
_ZTI13DreamMarioSub = 0x0069bf34;
_ZTS13DreamMarioSub = 0x006a0c5f;
_ZTI13FieldSystemCA = 0x0069bf70;
_ZTS13FieldSystemCA = 0x006a0c9f;
_ZTI13FieldTaskList = 0x0069bf7c;
_ZTS13FieldTaskList = 0x006a0caf;
_ZTI13GimmickRotMap = 0x0069bf88;
_ZTS13GimmickRotMap = 0x006a0cbf;
_ZTI13GimmickSneeze = 0x0069bf94;
_ZTS13GimmickSneeze = 0x006a0ccf;
_ZTI13MessageSimple = 0x0069bfa0;
_ZTS13MessageSimple = 0x006a0cdf;
_ZTI13TiltSwitchAct = 0x0069bfb4;
_ZTS13TiltSwitchAct = 0x006a0cff;
_ZTI13WaterFloorAct = 0x0069bfc0;
_ZTS13WaterFloorAct = 0x006a0d0f;
_ZTI14BtlExtListTmplI10BtlDfxUnitE = 0x0069bfcc;
_ZTS14BtlExtListTmplI10BtlDfxUnitE = 0x006a0d1f;
_ZTI14BtlExtListTmplI10BtlObjBlurE = 0x0069bfd8;
_ZTS14BtlExtListTmplI10BtlObjBlurE = 0x006a0d3e;
_ZTI14BtlExtListTmplI10BtlSndTaskE = 0x0069bfe4;
_ZTS14BtlExtListTmplI10BtlSndTaskE = 0x006a0d5d;
_ZTI14BtlExtListTmplI12BtlObjDmgNumE = 0x0069bff0;
_ZTS14BtlExtListTmplI12BtlObjDmgNumE = 0x006a0d7c;
_ZTI14BtlExtListTmplI13BtlObjEstStarE = 0x0069bffc;
_ZTS14BtlExtListTmplI13BtlObjEstStarE = 0x006a0d9d;
_ZTI14BtlExtListTmplI14BtlObjIronBallE = 0x0069c008;
_ZTS14BtlExtListTmplI14BtlObjIronBallE = 0x006a0dbf;
_ZTI14BtlExtListTmplI17BtlObjEffIndicateE = 0x0069c014;
_ZTS14BtlExtListTmplI17BtlObjEffIndicateE = 0x006a0de2;
_ZTI14BtlExtListTmplI18BtlObjDropItemBaseE = 0x0069c020;
_ZTS14BtlExtListTmplI18BtlObjDropItemBaseE = 0x006a0e08;
_ZTI14BtlExtListTmplI5BtlAIE = 0x0069c02c;
_ZTS14BtlExtListTmplI5BtlAIE = 0x006a0e2f;
_ZTI14BtlExtListTmplI5BtlPcE = 0x0069c038;
_ZTS14BtlExtListTmplI5BtlPcE = 0x006a0e48;
_ZTI14BtlExtListTmplI6BtlMonE = 0x0069c044;
_ZTS14BtlExtListTmplI6BtlMonE = 0x006a0e61;
_ZTI14BtlExtListTmplI6BtlObjE = 0x0069c050;
_ZTS14BtlExtListTmplI6BtlObjE = 0x006a0e7b;
_ZTI14BtlExtListTmplIN49_GLOBAL__N__25_BtlAtkMon_MasAnisAtk3_cpp_e5951c0813BtlObjMasAnisEE = 0x0069c05c;
_ZTS14BtlExtListTmplIN49_GLOBAL__N__25_BtlAtkMon_MasAnisAtk3_cpp_e5951c0813BtlObjMasAnisEE = 0x006a0e95;
_ZTI14BtlExtListTmplIN49_GLOBAL__N__25_BtlAtkMon_MasAnisAtk3_cpp_e5951c0818BtlObjMasAnisAniesEE = 0x0069c068;
_ZTS14BtlExtListTmplIN49_GLOBAL__N__25_BtlAtkMon_MasAnisAtk3_cpp_e5951c0818BtlObjMasAnisAniesEE = 0x006a0eec;
_ZTI14BtlExtListTmplIN49_GLOBAL__N__25_BtlAtkMon_MasAnisAtk3_cpp_e5951c0822BtlObjMasAnisShockwaveEE = 0x0069c074;
_ZTS14BtlExtListTmplIN49_GLOBAL__N__25_BtlAtkMon_MasAnisAtk3_cpp_e5951c0822BtlObjMasAnisShockwaveEE = 0x006a0f48;
_ZTI14BtlExtListTmplIN49_GLOBAL__N__25_BtlAtkMon_TunogonAtk1_cpp_b54f7cb013BtlObjTunogonEE = 0x0069c080;
_ZTS14BtlExtListTmplIN49_GLOBAL__N__25_BtlAtkMon_TunogonAtk1_cpp_b54f7cb013BtlObjTunogonEE = 0x006a0fa8;
_ZTI14BtlExtListTmplIN49_GLOBAL__N__25_BtlAtkMon_TunogonAtk1_cpp_b54f7cb017BtlObjTunogonCoinEE = 0x0069c08c;
_ZTS14BtlExtListTmplIN49_GLOBAL__N__25_BtlAtkMon_TunogonAtk1_cpp_b54f7cb017BtlObjTunogonCoinEE = 0x006a0fff;
_ZTI14BtlExtListTmplIN49_GLOBAL__N__25_BtlAtkMon_TunogonAtk1_cpp_b54f7cb021BtlObjTunogonMakibisiEE = 0x0069c098;
_ZTS14BtlExtListTmplIN49_GLOBAL__N__25_BtlAtkMon_TunogonAtk1_cpp_b54f7cb021BtlObjTunogonMakibisiEE = 0x006a105a;
_ZTI14BtlObjAlertMsg = 0x0069c0a4;
_ZTS14BtlObjAlertMsg = 0x006a10b9;
_ZTI14BtlObjBadgeEff = 0x0069c0b0;
_ZTS14BtlObjBadgeEff = 0x006a10ca;
_ZTI14BtlObjBaseBase = 0x0069c0bc;
_ZTS14BtlObjBaseBase = 0x006a10db;
_ZTI14BtlObjDropItem = 0x0069c0c8;
_ZTS14BtlObjDropItem = 0x006a10ec;
_ZTI14BtlObjDropMame = 0x0069c0d4;
_ZTS14BtlObjDropMame = 0x006a10fd;
_ZTI14BtlObjEstimate = 0x0069c0e0;
_ZTS14BtlObjEstimate = 0x006a110e;
_ZTI14BtlObjGameOver = 0x0069c0ec;
_ZTS14BtlObjGameOver = 0x006a111f;
_ZTI14BtlObjIronBall = 0x0069c0f8;
_ZTS14BtlObjIronBall = 0x006a1130;
_ZTI14BtlObjRetryMsg = 0x0069c104;
_ZTS14BtlObjRetryMsg = 0x006a1141;
_ZTI14BtlObjTurnSkip = 0x0069c110;
_ZTS14BtlObjTurnSkip = 0x006a1152;
_ZTI14BtlPcDefHammer = 0x0069c11c;
_ZTS14BtlPcDefHammer = 0x006a1163;
_ZTI14BtlPcDmgYakedo = 0x0069c128;
_ZTS14BtlPcDmgYakedo = 0x006a1174;
_ZTI14CrashObjectAct = 0x0069c134;
_ZTS14CrashObjectAct = 0x006a1185;
_ZTI14CtrFReadSimple = 0x0069c140;
_ZTS14CtrFReadSimple = 0x006a1196;
_ZTI14CtrFUncompSize = 0x0069c14c;
_ZTS14CtrFUncompSize = 0x006a11a7;
_ZTI14DreamMLMiracle = 0x0069c160;
_ZTS14DreamMLMiracle = 0x006a11c9;
_ZTI14FieldBlockItem = 0x0069c16c;
_ZTS14FieldBlockItem = 0x006a11da;
_ZTI14FieldCAChrBase = 0x0069c178;
_ZTS14FieldCAChrBase = 0x006a11eb;
_ZTI14GimmickGravity = 0x0069c1a4;
_ZTS14GimmickGravity = 0x006a120d;
_ZTI14MemAlcLockTmplI7MemAlcHE = 0x0069c1c0;
_ZTS14MemAlcLockTmplI7MemAlcHE = 0x006a1240;
_ZTI14MiracleGimmick = 0x0069c1cc;
_ZTS14MiracleGimmick = 0x006a125b;
_ZTI14NdlTorBlockAct = 0x0069c1d8;
_ZTS14NdlTorBlockAct = 0x006a126c;
_ZTI14RotHookShotAct = 0x0069c1e4;
_ZTS14RotHookShotAct = 0x006a127d;
_ZTI15AfterImageObjCA = 0x0069c1f0;
_ZTS15AfterImageObjCA = 0x006a128e;
_ZTI15BtlObjHpPnlDraw = 0x0069c1fc;
_ZTS15BtlObjHpPnlDraw = 0x006a12a0;
_ZTI15BtlObjRetryFade = 0x0069c208;
_ZTS15BtlObjRetryFade = 0x006a12b2;
_ZTI15BtlObjScreenInk = 0x0069c214;
_ZTS15BtlObjScreenInk = 0x006a12c4;
_ZTI15BtlPcCmdCarryOn = 0x0069c220;
_ZTS15BtlPcCmdCarryOn = 0x006a12d6;
_ZTI15BtlPcDmgDefault = 0x0069c22c;
_ZTS15BtlPcDmgDefault = 0x006a12e8;
_ZTI15BtlSpEffActBase = 0x0069c238;
_ZTS15BtlSpEffActBase = 0x006a12fa;
_ZTI15CtrLoadModuleEx = 0x0069c244;
_ZTS15CtrLoadModuleEx = 0x006a130c;
_ZTI15CtrUnloadModule = 0x0069c250;
_ZTS15CtrUnloadModule = 0x006a131e;
_ZTI15FieldActionIcon = 0x0069c25c;
_ZTS15FieldActionIcon = 0x006a1330;
_ZTI15FieldMdlChrBase = 0x0069c268;
_ZTS15FieldMdlChrBase = 0x006a1342;
_ZTI15GfxRenderTarget = 0x0069c274;
_ZTS15GfxRenderTarget = 0x006a1354;
_ZTI15GimmickCylinder = 0x0069c280;
_ZTS15GimmickCylinder = 0x006a1366;
_ZTI15GimmickHigeBase = 0x0069c28c;
_ZTS15GimmickHigeBase = 0x006a1378;
_ZTI15GimmickHigeTree = 0x0069c298;
_ZTS15GimmickHigeTree = 0x006a138a;
_ZTI15InCoinObjectAct = 0x0069c2a4;
_ZTS15InCoinObjectAct = 0x006a139c;
_ZTI15RenderDrawSysCA = 0x0069c2b8;
_ZTS15RenderDrawSysCA = 0x006a13c0;
_ZTI15UIScrollMessage = 0x0069c2cc;
_ZTS15UIScrollMessage = 0x006a13e4;
_ZTI16BombStrikeMngAct = 0x0069c2e0;
_ZTS16BombStrikeMngAct = 0x006a1408;
_ZTI16BtlObjTurnRemain = 0x0069c2ec;
_ZTS16BtlObjTurnRemain = 0x006a141b;
_ZTI16BtlPcAtkIronBall = 0x0069c2f8;
_ZTS16BtlPcAtkIronBall = 0x006a142e;
_ZTI16BtlPcAtkSH_Luigi = 0x0069c304;
_ZTS16BtlPcAtkSH_Luigi = 0x006a1441;
_ZTI16BtlPcAtkSJ_Luigi = 0x0069c310;
_ZTS16BtlPcAtkSJ_Luigi = 0x006a1454;
_ZTI16BtlTaskRetryMenu = 0x0069c31c;
_ZTS16BtlTaskRetryMenu = 0x006a1467;
_ZTI16FieldGlobalEvent = 0x0069c328;
_ZTS16FieldGlobalEvent = 0x006a147a;
_ZTI16GimmickHaneBlock = 0x0069c34c;
_ZTS16GimmickHaneBlock = 0x006a14a0;
_ZTI16GimmickPropeller = 0x0069c358;
_ZTS16GimmickPropeller = 0x006a14b3;
_ZTI16RenderDrawSysDFX = 0x0069c384;
_ZTS16RenderDrawSysDFX = 0x006a14d9;
_ZTI16RenderDrawSysGfx = 0x0069c390;
_ZTS16RenderDrawSysGfx = 0x006a14ec;
_ZTI16RenderDrawSysMsg = 0x0069c39c;
_ZTS16RenderDrawSysMsg = 0x006a14ff;
_ZTI16UIListWindowPlus = 0x0069c3a8;
_ZTS16UIListWindowPlus = 0x006a1512;
_ZTI17BtlMonAtkBTuraAtk = 0x0069c3bc;
_ZTS17BtlMonAtkBTuraAtk = 0x006a1539;
_ZTI17BtlMonDmgAvoidHam = 0x0069c3c8;
_ZTS17BtlMonDmgAvoidHam = 0x006a154d;
_ZTI17BtlObjDtSimpleArc = 0x0069c3dc;
_ZTS17BtlObjDtSimpleArc = 0x006a1575;
_ZTI17BtlObjEffIndicate = 0x0069c3e8;
_ZTS17BtlObjEffIndicate = 0x006a1589;
_ZTI17BtlObjLuckyChance = 0x0069c3f4;
_ZTS17BtlObjLuckyChance = 0x006a159d;
_ZTI17BtlPcAtkEntrySlip = 0x0069c420;
_ZTS17BtlPcAtkEntrySlip = 0x006a15c5;
_ZTI17BtlTaskPcCarryOff = 0x0069c42c;
_ZTS17BtlTaskPcCarryOff = 0x006a15d9;
_ZTI17DreamMarioMiracle = 0x0069c438;
_ZTS17DreamMarioMiracle = 0x006a15ed;
_ZTI17FieldCameraStereo = 0x0069c444;
_ZTS17FieldCameraStereo = 0x006a1601;
_ZTI17GimmickTimeChange = 0x0069c450;
_ZTS17GimmickTimeChange = 0x006a1615;
_ZTI17RealBallRingEvent = 0x0069c45c;
_ZTS17RealBallRingEvent = 0x006a1629;
_ZTI17RenderDrawSysPrim = 0x0069c470;
_ZTS17RenderDrawSysPrim = 0x006a1651;
_ZTI18BtlBrosAtkFlCopter = 0x0069c47c;
_ZTS18BtlBrosAtkFlCopter = 0x006a1665;
_ZTI18BtlExtListCoreTmplI10BtlDfxUnitLj392EE = 0x0069c488;
_ZTS18BtlExtListCoreTmplI10BtlDfxUnitLj392EE = 0x006a167a;
_ZTI18BtlExtListCoreTmplI10BtlObjBaseLj20EE = 0x0069c494;
_ZTS18BtlExtListCoreTmplI10BtlObjBaseLj20EE = 0x006a16a3;
_ZTI18BtlExtListCoreTmplI10BtlObjBlurLj316EE = 0x0069c4a0;
_ZTS18BtlExtListCoreTmplI10BtlObjBlurLj316EE = 0x006a16cb;
_ZTI18BtlExtListCoreTmplI10BtlSndTaskLj84EE = 0x0069c4ac;
_ZTS18BtlExtListCoreTmplI10BtlSndTaskLj84EE = 0x006a16f4;
_ZTI18BtlExtListCoreTmplI12BtlObjDmgNumLj256EE = 0x0069c4b8;
_ZTS18BtlExtListCoreTmplI12BtlObjDmgNumLj256EE = 0x006a171c;
_ZTI18BtlExtListCoreTmplI13BtlObjEstStarLj256EE = 0x0069c4c4;
_ZTS18BtlExtListCoreTmplI13BtlObjEstStarLj256EE = 0x006a1747;
_ZTI18BtlExtListCoreTmplI14BtlObjIronBallLj1012EE = 0x0069c4d0;
_ZTS18BtlExtListCoreTmplI14BtlObjIronBallLj1012EE = 0x006a1773;
_ZTI18BtlExtListCoreTmplI17BtlObjEffIndicateLj452EE = 0x0069c4dc;
_ZTS18BtlExtListCoreTmplI17BtlObjEffIndicateLj452EE = 0x006a17a1;
_ZTI18BtlExtListCoreTmplI18BtlObjDropItemBaseLj256EE = 0x0069c4e8;
_ZTS18BtlExtListCoreTmplI18BtlObjDropItemBaseLj256EE = 0x006a17d1;
_ZTI18BtlExtListCoreTmplI5BtlAILj116EE = 0x0069c4f4;
_ZTS18BtlExtListCoreTmplI5BtlAILj116EE = 0x006a1802;
_ZTI18BtlExtListCoreTmplI5BtlPcLj428EE = 0x0069c500;
_ZTS18BtlExtListCoreTmplI5BtlPcLj428EE = 0x006a1825;
_ZTI18BtlExtListCoreTmplI6BtlMonLj428EE = 0x0069c50c;
_ZTS18BtlExtListCoreTmplI6BtlMonLj428EE = 0x006a1848;
_ZTI18BtlExtListCoreTmplI6BtlObjLj1012EE = 0x0069c518;
_ZTS18BtlExtListCoreTmplI6BtlObjLj1012EE = 0x006a186c;
_ZTI18BtlExtListCoreTmplIN49_GLOBAL__N__25_BtlAtkMon_MasAnisAtk3_cpp_e5951c0813BtlObjMasAnisELj1020EE = 0x0069c524;
_ZTS18BtlExtListCoreTmplIN49_GLOBAL__N__25_BtlAtkMon_MasAnisAtk3_cpp_e5951c0813BtlObjMasAnisELj1020EE = 0x006a1891;
_ZTI18BtlExtListCoreTmplIN49_GLOBAL__N__25_BtlAtkMon_MasAnisAtk3_cpp_e5951c0818BtlObjMasAnisAniesELj1076EE = 0x0069c530;
_ZTS18BtlExtListCoreTmplIN49_GLOBAL__N__25_BtlAtkMon_MasAnisAtk3_cpp_e5951c0818BtlObjMasAnisAniesELj1076EE = 0x006a18f3;
_ZTI18BtlExtListCoreTmplIN49_GLOBAL__N__25_BtlAtkMon_MasAnisAtk3_cpp_e5951c0822BtlObjMasAnisShockwaveELj1048EE = 0x0069c53c;
_ZTS18BtlExtListCoreTmplIN49_GLOBAL__N__25_BtlAtkMon_MasAnisAtk3_cpp_e5951c0822BtlObjMasAnisShockwaveELj1048EE = 0x006a195a;
_ZTI18BtlExtListCoreTmplIN49_GLOBAL__N__25_BtlAtkMon_TunogonAtk1_cpp_b54f7cb013BtlObjTunogonELj1016EE = 0x0069c548;
_ZTS18BtlExtListCoreTmplIN49_GLOBAL__N__25_BtlAtkMon_TunogonAtk1_cpp_b54f7cb013BtlObjTunogonELj1016EE = 0x006a19c5;
_ZTI18BtlExtListCoreTmplIN49_GLOBAL__N__25_BtlAtkMon_TunogonAtk1_cpp_b54f7cb017BtlObjTunogonCoinELj1036EE = 0x0069c554;
_ZTS18BtlExtListCoreTmplIN49_GLOBAL__N__25_BtlAtkMon_TunogonAtk1_cpp_b54f7cb017BtlObjTunogonCoinELj1036EE = 0x006a1a27;
_ZTI18BtlExtListCoreTmplIN49_GLOBAL__N__25_BtlAtkMon_TunogonAtk1_cpp_b54f7cb021BtlObjTunogonMakibisiELj1036EE = 0x0069c560;
_ZTS18BtlExtListCoreTmplIN49_GLOBAL__N__25_BtlAtkMon_TunogonAtk1_cpp_b54f7cb021BtlObjTunogonMakibisiELj1036EE = 0x006a1a8d;
_ZTI18BtlExtListCoreTmplIN5Badge7ObjBaseELj72EE = 0x0069c56c;
_ZTS18BtlExtListCoreTmplIN5Badge7ObjBaseELj72EE = 0x006a1af7;
_ZTI18BtlObjDropItemBase = 0x0069c578;
_ZTS18BtlObjDropItemBase = 0x006a1b23;
_ZTI18BtlTaskEndCallback = 0x0069c584;
_ZTS18BtlTaskEndCallback = 0x006a1b38;
_ZTI18GimmickExchangeMap = 0x0069c590;
_ZTS18GimmickExchangeMap = 0x006a1b4d;
_ZTI18GimmickZeroGravity = 0x0069c59c;
_ZTS18GimmickZeroGravity = 0x006a1b62;
_ZTI18RenderDrawSysDummy = 0x0069c5e8;
_ZTS18RenderDrawSysDummy = 0x006a1ba1;
_ZTI19BtlObjAbnNameCmdBlk = 0x0069c5f4;
_ZTS19BtlObjAbnNameCmdBlk = 0x006a1bb6;
_ZTI19BtlObjChargeCounter = 0x0069c600;
_ZTS19BtlObjChargeCounter = 0x006a1bcc;
_ZTI19BtlPcAtkMidoriKoura = 0x0069c60c;
_ZTS19BtlPcAtkMidoriKoura = 0x006a1be2;
_ZTI19BtlPcAtkMiracleBall = 0x0069c618;
_ZTS19BtlPcAtkMiracleBall = 0x006a1bf8;
_ZTI19BtlPcAtkMiracleJump = 0x0069c624;
_ZTS19BtlPcAtkMiracleJump = 0x006a1c0e;
_ZTI19BtlPcAtkSH_PcDfxObj = 0x0069c630;
_ZTS19BtlPcAtkSH_PcDfxObj = 0x006a1c24;
_ZTI19BtlPcAtkSJ_PcDfxObj = 0x0069c63c;
_ZTS19BtlPcAtkSJ_PcDfxObj = 0x006a1c3a;
_ZTI19FieldGuideMapButton = 0x0069c648;
_ZTS19FieldGuideMapButton = 0x006a1c50;
_ZTI19yaLuigiBoxLocal_TOP = 0x0069c69c;
_ZTS19yaLuigiBoxLocal_TOP = 0x006a1ca8;
_ZTI20BtlAtkMJCamState_End = 0x0069c6a8;
_ZTS20BtlAtkMJCamState_End = 0x006a1cbe;
_ZTI20BtlDfxUnitSeCallback = 0x0069c6b4;
_ZTS20BtlDfxUnitSeCallback = 0x006a1cd5;
_ZTI20BtlMonAtkMasAnisAtk3 = 0x0069c6c0;
_ZTS20BtlMonAtkMasAnisAtk3 = 0x006a1cec;
_ZTI20BtlMonAtkTunogonAtk1 = 0x0069c6cc;
_ZTS20BtlMonAtkTunogonAtk1 = 0x006a1d03;
_ZTI20BtlObjDropItemMsgWnd = 0x0069c6d8;
_ZTS20BtlObjDropItemMsgWnd = 0x006a1d1a;
_ZTI20MsgDataAcsrTmplFixedILh4EE = 0x0069c6e4;
_ZTS20MsgDataAcsrTmplFixedILh4EE = 0x006a1d31;
_ZTI20RealMoguriPanelEvent = 0x0069c6f8;
_ZTS20RealMoguriPanelEvent = 0x006a1d65;
_ZTI20RealNobiruDokanEvent = 0x0069c704;
_ZTS20RealNobiruDokanEvent = 0x006a1d7c;
_ZTI21BtlAtkMJBoxState_Jump = 0x0069c710;
_ZTS21BtlAtkMJBoxState_Jump = 0x006a1d93;
_ZTI21BtlAtkMJBoxState_Main = 0x0069c71c;
_ZTS21BtlAtkMJBoxState_Main = 0x006a1dab;
_ZTI21BtlAtkMJCamState_Main = 0x0069c728;
_ZTS21BtlAtkMJCamState_Main = 0x006a1dc3;
_ZTI21BtlMoveAttachSpline3d = 0x0069c734;
_ZTS21BtlMoveAttachSpline3d = 0x006a1ddb;
_ZTI21MBPlayBuildWallEffect = 0x0069c740;
_ZTS21MBPlayBuildWallEffect = 0x006a1df3;
_ZTI22BtlAtkMJBoxState_Intro = 0x0069c74c;
_ZTS22BtlAtkMJBoxState_Intro = 0x006a1e0b;
_ZTI22BtlAtkMJCamState_Intro = 0x0069c758;
_ZTS22BtlAtkMJCamState_Intro = 0x006a1e24;
_ZTI22BtlPcAtkMiracleTornado = 0x0069c764;
_ZTS22BtlPcAtkMiracleTornado = 0x006a1e3d;
_ZTI22BtlTaskMonDmgStompBase = 0x0069c770;
_ZTS22BtlTaskMonDmgStompBase = 0x006a1e56;
_ZTI22FieldDfxUnitSeCallback = 0x0069c77c;
_ZTS22FieldDfxUnitSeCallback = 0x006a1e6f;
_ZTI22RealKuruKuruDokanEvent = 0x0069c788;
_ZTS22RealKuruKuruDokanEvent = 0x006a1e88;
_ZTI23BtlAtkMJBoxState_Attach = 0x0069c794;
_ZTS23BtlAtkMJBoxState_Attach = 0x006a1ea1;
_ZTI23BtlAtkMJBoxState_Detach = 0x0069c7a0;
_ZTS23BtlAtkMJBoxState_Detach = 0x006a1ebb;
_ZTI23BtlAtkMJCamState_GoHome = 0x0069c7ac;
_ZTS23BtlAtkMJCamState_GoHome = 0x006a1ed5;
_ZTI23BtlAtkMJLuigiState_Init = 0x0069c7b8;
_ZTS23BtlAtkMJLuigiState_Init = 0x006a1eef;
_ZTI23BtlAtkMJLuigiState_Jump = 0x0069c7c4;
_ZTS23BtlAtkMJLuigiState_Jump = 0x006a1f09;
_ZTI23FieldSaveExDataAcsrRead = 0x0069c7d8;
_ZTS23FieldSaveExDataAcsrRead = 0x006a1f3d;
_ZTI24BtlDmgPcAbnRecoverYakedo = 0x0069c7e4;
_ZTS24BtlDmgPcAbnRecoverYakedo = 0x006a1f57;
_ZTI24FieldSaveExDataAcsrWrite = 0x0069c7f0;
_ZTS24FieldSaveExDataAcsrWrite = 0x006a1f72;
_ZTI25BtlAtkMJLuigiState_Attach = 0x0069c81c;
_ZTS25BtlAtkMJLuigiState_Attach = 0x006a1fa8;
_ZTI25BtlAtkMJMarioState_Attach = 0x0069c828;
_ZTS25BtlAtkMJMarioState_Attach = 0x006a1fc4;
_ZTI25BtlAtkMJMarioState_Detach = 0x0069c834;
_ZTS25BtlAtkMJMarioState_Detach = 0x006a1fe0;
_ZTI26BtlAtkMJBoxState_FinalJump = 0x0069c840;
_ZTS26BtlAtkMJBoxState_FinalJump = 0x006a1ffc;
_ZTI26BtlAtkMJBoxState_SmallJump = 0x0069c84c;
_ZTS26BtlAtkMJBoxState_SmallJump = 0x006a2019;
_ZTI27BtlAtkMJCamState_FinalStomp = 0x0069c858;
_ZTS27BtlAtkMJCamState_FinalStomp = 0x006a2036;
_ZTI28BtlAtkMJLuigiState_FinalJump = 0x0069c864;
_ZTS28BtlAtkMJLuigiState_FinalJump = 0x006a2054;
_ZTI28BtlAtkMJLuigiState_SmallJump = 0x0069c870;
_ZTS28BtlAtkMJLuigiState_SmallJump = 0x006a2073;
_ZTI28BtlAtkMJMarioState_FinalJump = 0x0069c87c;
_ZTS28BtlAtkMJMarioState_FinalJump = 0x006a2092;
_ZTI28BtlAtkMJMarioState_SmallJump = 0x0069c888;
_ZTS28BtlAtkMJMarioState_SmallJump = 0x006a20b1;
_ZTI28BtlAtkMJMarioState_StompToge = 0x0069c894;
_ZTS28BtlAtkMJMarioState_StompToge = 0x006a20d0;
_ZTI29BtlAtkMJCamState_FinalStompNG = 0x0069c8a0;
_ZTS29BtlAtkMJCamState_FinalStompNG = 0x006a20ef;
_ZTI29BtlAtkMJCamState_FinalStompOK = 0x0069c8ac;
_ZTS29BtlAtkMJCamState_FinalStompOK = 0x006a210f;
_ZTI29BtlAtkMJLuigiState_BaraAttack = 0x0069c8b8;
_ZTS29BtlAtkMJLuigiState_BaraAttack = 0x006a212f;
_ZTI29BtlAtkMJMarioState_BaraAttack = 0x0069c8c4;
_ZTS29BtlAtkMJMarioState_BaraAttack = 0x006a214f;
_ZTI30FieldCompulsiveMessageColorAnm = 0x0069c8d0;
_ZTS30FieldCompulsiveMessageColorAnm = 0x006a216f;
_ZTI31BtlAtkMJMarioState_FinalJump_NG = 0x0069c8dc;
_ZTS31BtlAtkMJMarioState_FinalJump_NG = 0x006a2190;
_ZTI31BtlAtkMJMarioState_FinalJump_OK = 0x0069c8e8;
_ZTS31BtlAtkMJMarioState_FinalJump_OK = 0x006a21b2;
_ZTI32BtlAtkMJBoxState_FinalJumpFailed = 0x0069c8f4;
_ZTS32BtlAtkMJBoxState_FinalJumpFailed = 0x006a21d4;
_ZTI33BtlAtkMJBoxState_FinalJumpSuccess = 0x0069c900;
_ZTS33BtlAtkMJBoxState_FinalJumpSuccess = 0x006a21f7;
_ZTI37BtlAtkMJLuigiState_FinalLandOnDestroy = 0x0069c90c;
_ZTS37BtlAtkMJLuigiState_FinalLandOnDestroy = 0x006a221b;
_ZTI37BtlAtkMJMarioState_FinalLandOnDestroy = 0x0069c918;
_ZTS37BtlAtkMJMarioState_FinalLandOnDestroy = 0x006a2243;
_ZTI3Dfx = 0x0069c924;
_ZTS3Dfx = 0x006a226b;
_ZTI4Boot = 0x0069c938;
_ZTS4Boot = 0x006a2275;
_ZTI5BtlPc = 0x0069c964;
_ZTS5BtlPc = 0x006a2288;
_ZTI5MoveFILj1EE = 0x0069c978;
_ZTS5MoveFILj1EE = 0x006a2296;
_ZTI5MoveVILj1EE = 0x0069c984;
_ZTS5MoveVILj1EE = 0x006a22a3;
_ZTI5MoveVILj2EE = 0x0069c990;
_ZTS5MoveVILj2EE = 0x006a22b0;
_ZTI5MoveVILj3EE = 0x0069c99c;
_ZTS5MoveVILj3EE = 0x006a22bd;
_ZTI6BtlAct = 0x0069c9b0;
_ZTS6BtlAct = 0x006a22d1;
_ZTI6BtlChr = 0x0069c9bc;
_ZTS6BtlChr = 0x006a22d9;
_ZTI6BtlHit = 0x0069c9c8;
_ZTS6BtlHit = 0x006a22e1;
_ZTI6BtlMon = 0x0069c9d4;
_ZTS6BtlMon = 0x006a22e9;
_ZTI6BtlObj = 0x0069c9e0;
_ZTS6BtlObj = 0x006a22f1;
_ZTI6DfxSys = 0x0069c9f4;
_ZTS6DfxSys = 0x006a2301;
_ZTI6MemAlc = 0x0069ca08;
_ZTS6MemAlc = 0x006a2311;
_ZTI6NutAct = 0x0069ca14;
_ZTS6NutAct = 0x006a2319;
_ZTI6RealFS = 0x0069ca20;
_ZTS6RealFS = 0x006a2321;
_ZTI6RealML = 0x0069ca2c;
_ZTS6RealML = 0x006a2329;
_ZTI7BtlAIDt = 0x0069ca38;
_ZTS7BtlAIDt = 0x006a2331;
_ZTI7BtlNode = 0x0069ca54;
_ZTS7BtlNode = 0x006a234c;
_ZTI7CtrFEnd = 0x0069ca60;
_ZTS7CtrFEnd = 0x006a2355;
_ZTI7CtrFSEx = 0x0069ca6c;
_ZTS7CtrFSEx = 0x006a235e;
_ZTI7DreamFS = 0x0069ca80;
_ZTS7DreamFS = 0x006a2370;
_ZTI7DreamML = 0x0069ca8c;
_ZTS7DreamML = 0x006a2379;
_ZTI7FieldFS = 0x0069cab8;
_ZTS7FieldFS = 0x006a238b;
_ZTI7FieldPC = 0x0069cacc;
_ZTS7FieldPC = 0x006a239d;
_ZTI7FireAct = 0x0069cad8;
_ZTS7FireAct = 0x006a23a6;
_ZTI7GustAct = 0x0069cae4;
_ZTS7GustAct = 0x006a23af;
_ZTI7MemAlcB = 0x0069caf8;
_ZTS7MemAlcB = 0x006a23c1;
_ZTI7MemAlcF = 0x0069cb04;
_ZTS7MemAlcF = 0x006a23ca;
_ZTI7MemAlcH = 0x0069cb10;
_ZTS7MemAlcH = 0x006a23d3;
_ZTI7Message = 0x0069cb1c;
_ZTS7Message = 0x006a23dc;
_ZTI7SnowAct = 0x0069cb28;
_ZTS7SnowAct = 0x006a23e5;
_ZTI7TestAct = 0x0069cb34;
_ZTS7TestAct = 0x006a23ee;
_ZTI8BtlDfxCA = 0x0069cb40;
_ZTS8BtlDfxCA = 0x006a23f7;
_ZTI8BtlLuigi = 0x0069cb4c;
_ZTS8BtlLuigi = 0x006a2401;
_ZTI8BtlMario = 0x0069cb58;
_ZTS8BtlMario = 0x006a240b;
_ZTI8BtlMonDt = 0x0069cb64;
_ZTS8BtlMonDt = 0x006a2415;
_ZTI8BtlMsgDt = 0x0069cb70;
_ZTS8BtlMsgDt = 0x006a241f;
_ZTI8BtlObjDt = 0x0069cb7c;
_ZTS8BtlObjDt = 0x006a2429;
_ZTI8CtrFRead = 0x0069cb88;
_ZTS8CtrFRead = 0x006a2433;
_ZTI8CtrNwAlc = 0x0069cb94;
_ZTS8CtrNwAlc = 0x006a243d;
_ZTI8FieldChr = 0x0069cba0;
_ZTS8FieldChr = 0x006a2447;
_ZTI8GXResCmd = 0x0069cbac;
_ZTS8GXResCmd = 0x006a2451;
_ZTI8GXResTex = 0x0069cbc0;
_ZTS8GXResTex = 0x006a2465;
_ZTI8GXResVtx = 0x0069cbcc;
_ZTS8GXResVtx = 0x006a246f;
_ZTI8GameMain = 0x0069cbd8;
_ZTS8GameMain = 0x006a2479;
_ZTI8MBObjCam = 0x0069cbe4;
_ZTS8MBObjCam = 0x006a2483;
_ZTI8MarioObj = 0x0069cc10;
_ZTS8MarioObj = 0x006a2497;
_ZTI8StateEnd = 0x0069cc5c;
_ZTS8StateEnd = 0x006a24b5;
_ZTI8clRfxSys = 0x0069cc78;
_ZTS8clRfxSys = 0x006a24d3;
_ZTI9BtlActMan = 0x0069cc84;
_ZTS9BtlActMan = 0x006a24dd;
_ZTI9BtlCamera = 0x0069cc90;
_ZTS9BtlCamera = 0x006a24e8;
_ZTI9BtlDfxMdl = 0x0069cc9c;
_ZTS9BtlDfxMdl = 0x006a24f3;
_ZTI9BtlObjBlk = 0x0069cca8;
_ZTS9BtlObjBlk = 0x006a24fe;
_ZTI9CrashRock = 0x0069ccbc;
_ZTS9CrashRock = 0x006a2514;
_ZTI9CtrJobMan = 0x0069ccc8;
_ZTS9CtrJobMan = 0x006a251f;
_ZTI9DLuigiEtc = 0x0069ccfc;
_ZTS9DLuigiEtc = 0x006a254b;
_ZTI9DummyRock = 0x0069cd10;
_ZTS9DummyRock = 0x006a2561;
_ZTI9FieldCoin = 0x0069cd1c;
_ZTS9FieldCoin = 0x006a256c;
_ZTI9FieldIcon = 0x0069cd28;
_ZTS9FieldIcon = 0x006a2577;
_ZTI9MBObjBase = 0x0069cd3c;
_ZTS9MBObjBase = 0x006a258d;
_ZTI9MoveWorkV = 0x0069cd60;
_ZTS9MoveWorkV = 0x006a25b9;
_ZTI9NeedleAct = 0x0069cd6c;
_ZTS9NeedleAct = 0x006a25c4;
_ZTI9RealEvent = 0x0069cd98;
_ZTS9RealEvent = 0x006a25da;
_ZTI9RealLuigi = 0x0069cda4;
_ZTS9RealLuigi = 0x006a25e5;
_ZTI9RealMainL = 0x0069cdb0;
_ZTS9RealMainL = 0x006a25f0;
_ZTI9RealMainU = 0x0069cdbc;
_ZTS9RealMainU = 0x006a25fb;
_ZTI9RealMario = 0x0069cdc8;
_ZTS9RealMario = 0x006a2606;
_ZTI9RealPCSub = 0x0069cdd4;
_ZTS9RealPCSub = 0x006a2611;
_ZTI9StateMain = 0x0069cde8;
_ZTS9StateMain = 0x006a2627;
_ZTIN10BtlEndTask15BtlEndTaskPcWinE = 0x0069ce04;
_ZTSN10BtlEndTask15BtlEndTaskPcWinE = 0x006a265c;
_ZTIN10BtlPcAtkSH19MissHammerDfxHandleE = 0x0069ce10;
_ZTSN10BtlPcAtkSH19MissHammerDfxHandleE = 0x006a267c;
_ZTIN10KameckAtk44yaUt11ProcessBaseE = 0x0069ce1c;
_ZTSN10KameckAtk44yaUt11ProcessBaseE = 0x006a26a0;
_ZTIN10KameckAtk44yaUt14SphereColliderE = 0x0069ce28;
_ZTSN10KameckAtk44yaUt14SphereColliderE = 0x006a26c1;
_ZTIN10KameckAtk44yaUt9IColliderE = 0x0069ce64;
_ZTSN10KameckAtk44yaUt9IColliderE = 0x006a27c3;
_ZTIN10KameckAtk45Broom11StateAttackE = 0x0069ce70;
_ZTSN10KameckAtk45Broom11StateAttackE = 0x006a27e1;
_ZTIN10KameckAtk45Broom11StateMixingE = 0x0069ce7c;
_ZTSN10KameckAtk45Broom11StateMixingE = 0x006a2803;
_ZTIN10KameckAtk45Broom15StateFinalSweepE = 0x0069ce88;
_ZTSN10KameckAtk45Broom15StateFinalSweepE = 0x006a2825;
_ZTIN10KameckAtk45Broom16StateIntroSummonE = 0x0069ce94;
_ZTSN10KameckAtk45Broom16StateIntroSummonE = 0x006a284b;
_ZTIN10KameckAtk45Broom21StateMoveToKameck_FlyE = 0x0069cea0;
_ZTSN10KameckAtk45Broom21StateMoveToKameck_FlyE = 0x006a2872;
_ZTIN10KameckAtk45Broom22StateMoveToKameck_LandE = 0x0069ceac;
_ZTSN10KameckAtk45Broom22StateMoveToKameck_LandE = 0x006a289e;
_ZTIN10KameckAtk45Mario11StateMixingE = 0x0069ceb8;
_ZTSN10KameckAtk45Mario11StateMixingE = 0x006a28cb;
_ZTIN10KameckAtk45Mario13StateComeBackE = 0x0069cec4;
_ZTSN10KameckAtk45Mario13StateComeBackE = 0x006a28ed;
_ZTIN10KameckAtk45Mario13StateGoToHomeE = 0x0069ced0;
_ZTSN10KameckAtk45Mario13StateGoToHomeE = 0x006a2911;
_ZTIN10KameckAtk45Mario17StateComeBackDeadE = 0x0069cedc;
_ZTSN10KameckAtk45Mario17StateComeBackDeadE = 0x006a2935;
_ZTIN10KameckAtk45Mario18StateEscapeDigitalE = 0x0069cee8;
_ZTSN10KameckAtk45Mario18StateEscapeDigitalE = 0x006a295d;
_ZTIN10KameckAtk45Mario18StateHitBroomFinalE = 0x0069cef4;
_ZTSN10KameckAtk45Mario18StateHitBroomFinalE = 0x006a2986;
_ZTIN10KameckAtk45Mario19StateHitBroomMixingE = 0x0069cf00;
_ZTSN10KameckAtk45Mario19StateHitBroomMixingE = 0x006a29af;
_ZTIN10KameckAtk46AtkCmd10StateIntroE = 0x0069cf0c;
_ZTSN10KameckAtk46AtkCmd10StateIntroE = 0x006a29d9;
_ZTIN10KameckAtk46AtkCmdE = 0x0069cf18;
_ZTSN10KameckAtk46AtkCmdE = 0x006a29fb;
_ZTIN10KameckAtk46Camera13StateGoToHomeE = 0x0069cf24;
_ZTSN10KameckAtk46Camera13StateGoToHomeE = 0x006a2a11;
_ZTIN10KameckAtk46Camera16StateIntroSummonE = 0x0069cf30;
_ZTSN10KameckAtk46Camera16StateIntroSummonE = 0x006a2a36;
_ZTIN10KameckAtk46Camera16StateMarioFollowE = 0x0069cf3c;
_ZTSN10KameckAtk46Camera16StateMarioFollowE = 0x006a2a5e;
_ZTIN10KameckAtk46Kameck10StateSweepE = 0x0069cf48;
_ZTSN10KameckAtk46Kameck10StateSweepE = 0x006a2a86;
_ZTIN10KameckAtk46Kameck13StateBroomOutE = 0x0069cf54;
_ZTSN10KameckAtk46Kameck13StateBroomOutE = 0x006a2aa8;
_ZTIN10KameckAtk46Kameck15StateControlAnmE = 0x0069cf60;
_ZTSN10KameckAtk46Kameck15StateControlAnmE = 0x006a2acd;
_ZTIN10KameckAtk46Kameck17StateMoveHome_FlyE = 0x0069cf6c;
_ZTSN10KameckAtk46Kameck17StateMoveHome_FlyE = 0x006a2af4;
_ZTIN10KameckAtk46Kameck18StateMoveHome_LandE = 0x0069cf78;
_ZTSN10KameckAtk46Kameck18StateMoveHome_LandE = 0x006a2b1d;
_ZTIN10KameckAtk48Resource6LoaderE = 0x0069cf84;
_ZTSN10KameckAtk48Resource6LoaderE = 0x006a2b47;
_ZTIN10__cxxabiv117__class_type_infoE = 0x0069cf90;
_ZTSN10__cxxabiv117__class_type_infoE = 0x006a2b66;
_ZTIN10__cxxabiv120__si_class_type_infoE = 0x0069cf9c;
_ZTSN10__cxxabiv120__si_class_type_infoE = 0x006a2b88;
_ZTIN10__cxxabiv121__vmi_class_type_infoE = 0x0069cfa8;
_ZTSN10__cxxabiv121__vmi_class_type_infoE = 0x006a2bad;
_ZTIN11BtlAbnormal18TaskAbnDfxTimeStopE = 0x0069cfb4;
_ZTSN11BtlAbnormal18TaskAbnDfxTimeStopE = 0x006a2bd3;
_ZTIN11BtlAbnormal3ActE = 0x0069cfc0;
_ZTSN11BtlAbnormal3ActE = 0x006a2bf7;
_ZTIN11BtlDropCoin4CoinE = 0x0069cfcc;
_ZTSN11BtlDropCoin4CoinE = 0x006a2c0b;
_ZTIN11BtlMainFunc13JobInitDfxMsgE = 0x0069cfd8;
_ZTSN11BtlMainFunc13JobInitDfxMsgE = 0x006a2c20;
_ZTIN11BtlMainFunc20AbortTaskEndCallbackE = 0x0069cfe4;
_ZTSN11BtlMainFunc20AbortTaskEndCallbackE = 0x006a2c3f;
_ZTIN11BtlPcCmdBlk14ChgScrCallbackE = 0x0069cff0;
_ZTSN11BtlPcCmdBlk14ChgScrCallbackE = 0x006a2c65;
_ZTIN11BtlPcCmdBlk20ExecBadgeEffCallbackE = 0x0069cffc;
_ZTSN11BtlPcCmdBlk20ExecBadgeEffCallbackE = 0x006a2c85;
_ZTIN11BtlPcCmdBlk22SelectBadgeEffCallbackE = 0x0069d008;
_ZTSN11BtlPcCmdBlk22SelectBadgeEffCallbackE = 0x006a2cab;
_ZTIN11MDCHALLENGE10BossTargetE = 0x0069d01c;
_ZTSN11MDCHALLENGE10BossTargetE = 0x006a2cf1;
_ZTIN11MDCHALLENGE10ZakoTargetE = 0x0069d028;
_ZTSN11MDCHALLENGE10ZakoTargetE = 0x006a2d0d;
_ZTIN11MDCHALLENGE4yaUt11ProcessBaseE = 0x0069d034;
_ZTSN11MDCHALLENGE4yaUt11ProcessBaseE = 0x006a2d29;
_ZTIN11MDCHALLENGE6AtkCmd10StateIntroE = 0x0069d048;
_ZTSN11MDCHALLENGE6AtkCmd10StateIntroE = 0x006a2d69;
_ZTIN11MDCHALLENGE6AtkCmd13StateFinalizeE = 0x0069d054;
_ZTSN11MDCHALLENGE6AtkCmd13StateFinalizeE = 0x006a2d8c;
_ZTIN11MDCHALLENGE6AtkCmd9StateGameE = 0x0069d060;
_ZTSN11MDCHALLENGE6AtkCmd9StateGameE = 0x006a2db2;
_ZTIN11MDCHALLENGE6AtkCmdE = 0x0069d06c;
_ZTSN11MDCHALLENGE6AtkCmdE = 0x006a2dd3;
_ZTIN11MDCHALLENGE8ResourceE = 0x0069d080;
_ZTSN11MDCHALLENGE8ResourceE = 0x006a2e02;
_ZTIN12FLCCHALLENGE10StateIntroE = 0x0069d08c;
_ZTSN12FLCCHALLENGE10StateIntroE = 0x006a2e1b;
_ZTIN12FLCCHALLENGE13StateFinalizeE = 0x0069d098;
_ZTSN12FLCCHALLENGE13StateFinalizeE = 0x006a2e38;
_ZTIN12FLCCHALLENGE17ItemDamageBalloonE = 0x0069d0ac;
_ZTSN12FLCCHALLENGE17ItemDamageBalloonE = 0x006a2e7a;
_ZTIN12FLCCHALLENGE18ObjStompTarget_MonE = 0x0069d0b8;
_ZTSN12FLCCHALLENGE18ObjStompTarget_MonE = 0x006a2e9e;
_ZTIN12FLCCHALLENGE20ObjStompTarget_DummyE = 0x0069d0c4;
_ZTSN12FLCCHALLENGE20ObjStompTarget_DummyE = 0x006a2ec3;
_ZTIN12FLCCHALLENGE4yaUt11ProcessBaseE = 0x0069d0d0;
_ZTSN12FLCCHALLENGE4yaUt11ProcessBaseE = 0x006a2eea;
_ZTIN12FLCCHALLENGE4yaUt19MinigameObjEstimateE = 0x0069d0dc;
_ZTSN12FLCCHALLENGE4yaUt19MinigameObjEstimateE = 0x006a2f0d;
_ZTIN12FLCCHALLENGE6AtkCmdE = 0x0069d100;
_ZTSN12FLCCHALLENGE6AtkCmdE = 0x006a2f85;
_ZTIN12FLCCHALLENGE8ObjLuigiE = 0x0069d10c;
_ZTSN12FLCCHALLENGE8ObjLuigiE = 0x006a2f9d;
_ZTIN12FLCCHALLENGE8ObjMarioE = 0x0069d118;
_ZTSN12FLCCHALLENGE8ObjMarioE = 0x006a2fb7;
_ZTIN12FLCCHALLENGE8ResourceE = 0x0069d124;
_ZTSN12FLCCHALLENGE8ResourceE = 0x006a2fd1;
_ZTIN12FLCCHALLENGE9ItemTimerE = 0x0069d130;
_ZTSN12FLCCHALLENGE9ItemTimerE = 0x006a2feb;
_ZTIN12FLCCHALLENGE9StateMainE = 0x0069d13c;
_ZTSN12FLCCHALLENGE9StateMainE = 0x006a3006;
_ZTIN12MRBCHALLENGE10ItemNeedleE = 0x0069d148;
_ZTSN12MRBCHALLENGE10ItemNeedleE = 0x006a3021;
_ZTIN12MRBCHALLENGE10ObjBigRose13Behavior_IdleE = 0x0069d154;
_ZTSN12MRBCHALLENGE10ObjBigRose13Behavior_IdleE = 0x006a303e;
_ZTIN12MRBCHALLENGE10ObjBigRose19Behavior_MoveRandomE = 0x0069d160;
_ZTSN12MRBCHALLENGE10ObjBigRose19Behavior_MoveRandomE = 0x006a306a;
_ZTIN12MRBCHALLENGE10ObjBigRose19Behavior_MoveSimpleE = 0x0069d16c;
_ZTSN12MRBCHALLENGE10ObjBigRose19Behavior_MoveSimpleE = 0x006a309c;
_ZTIN12MRBCHALLENGE10ObjBigRose20Behavior_MoveAndStopE = 0x0069d178;
_ZTSN12MRBCHALLENGE10ObjBigRose20Behavior_MoveAndStopE = 0x006a30ce;
_ZTIN12MRBCHALLENGE10ObjBigRoseE = 0x0069d184;
_ZTSN12MRBCHALLENGE10ObjBigRoseE = 0x006a3101;
_ZTIN12MRBCHALLENGE10StateIntroE = 0x0069d190;
_ZTSN12MRBCHALLENGE10StateIntroE = 0x006a311e;
_ZTIN12MRBCHALLENGE13ObjNormalRoseE = 0x0069d19c;
_ZTSN12MRBCHALLENGE13ObjNormalRoseE = 0x006a313b;
_ZTIN12MRBCHALLENGE13StateFinalizeE = 0x0069d1a8;
_ZTSN12MRBCHALLENGE13StateFinalizeE = 0x006a315b;
_ZTIN12MRBCHALLENGE17LuigiBallRendererE = 0x0069d1b4;
_ZTSN12MRBCHALLENGE17LuigiBallRendererE = 0x006a317b;
_ZTIN12MRBCHALLENGE4yaUt10BtlColReadE = 0x0069d1c0;
_ZTSN12MRBCHALLENGE4yaUt10BtlColReadE = 0x006a319f;
_ZTIN12MRBCHALLENGE4yaUt11ProcessBaseE = 0x0069d1cc;
_ZTSN12MRBCHALLENGE4yaUt11ProcessBaseE = 0x006a31c1;
_ZTIN12MRBCHALLENGE4yaUt14SphereColliderE = 0x0069d1d8;
_ZTSN12MRBCHALLENGE4yaUt14SphereColliderE = 0x006a31e4;
_ZTIN12MRBCHALLENGE4yaUt19MinigameObjEstimateE = 0x0069d1e4;
_ZTSN12MRBCHALLENGE4yaUt19MinigameObjEstimateE = 0x006a320a;
_ZTIN12MRBCHALLENGE4yaUt25MiracleAtkIntro_MarioJumpE = 0x0069d1f0;
_ZTSN12MRBCHALLENGE4yaUt25MiracleAtkIntro_MarioJumpE = 0x006a3235;
_ZTIN12MRBCHALLENGE4yaUt26MiracleAtkIntro_HoistLuigiE = 0x0069d1fc;
_ZTSN12MRBCHALLENGE4yaUt26MiracleAtkIntro_HoistLuigiE = 0x006a3266;
_ZTIN12MRBCHALLENGE4yaUt26MiracleAtkIntro_ThrowLuigiE = 0x0069d208;
_ZTSN12MRBCHALLENGE4yaUt26MiracleAtkIntro_ThrowLuigiE = 0x006a3298;
_ZTIN12MRBCHALLENGE4yaUt9IColliderE = 0x0069d224;
_ZTSN12MRBCHALLENGE4yaUt9IColliderE = 0x006a3317;
_ZTIN12MRBCHALLENGE6AtkCmdE = 0x0069d230;
_ZTSN12MRBCHALLENGE6AtkCmdE = 0x006a3337;
_ZTIN12MRBCHALLENGE8ItemBombE = 0x0069d244;
_ZTSN12MRBCHALLENGE8ItemBombE = 0x006a3369;
_ZTIN12MRBCHALLENGE8ResourceE = 0x0069d250;
_ZTSN12MRBCHALLENGE8ResourceE = 0x006a3383;
_ZTIN12MRBCHALLENGE9LuigiBall6EffectE = 0x0069d25c;
_ZTSN12MRBCHALLENGE9LuigiBall6EffectE = 0x006a339d;
_ZTIN12MRBCHALLENGE9StateMainE = 0x0069d268;
_ZTSN12MRBCHALLENGE9StateMainE = 0x006a33bf;
_ZTIN12MRFCHALLENGE4yaUt11ProcessBaseE = 0x0069d274;
_ZTSN12MRFCHALLENGE4yaUt11ProcessBaseE = 0x006a33da;
_ZTIN12MRFCHALLENGE4yaUt19MinigameObjEstimateE = 0x0069d280;
_ZTSN12MRFCHALLENGE4yaUt19MinigameObjEstimateE = 0x006a33fd;
_ZTIN12MRFCHALLENGE4yaUt26MiracleAtkIntro_HoistLuigiE = 0x0069d28c;
_ZTSN12MRFCHALLENGE4yaUt26MiracleAtkIntro_HoistLuigiE = 0x006a3428;
_ZTIN12MRFCHALLENGE4yaUt26MiracleAtkIntro_ThrowLuigiE = 0x0069d298;
_ZTSN12MRFCHALLENGE4yaUt26MiracleAtkIntro_ThrowLuigiE = 0x006a345a;
_ZTIN12MRFCHALLENGE6AtkCmd10StateIntroE = 0x0069d2b4;
_ZTSN12MRFCHALLENGE6AtkCmd10StateIntroE = 0x006a34d4;
_ZTIN12MRFCHALLENGE6AtkCmd9StateTossE = 0x0069d2c0;
_ZTSN12MRFCHALLENGE6AtkCmd9StateTossE = 0x006a34f8;
_ZTIN12MRFCHALLENGE6AtkCmdE = 0x0069d2cc;
_ZTSN12MRFCHALLENGE6AtkCmdE = 0x006a351a;
_ZTIN12MRFCHALLENGE8Resource11LoadProcessE = 0x0069d2d8;
_ZTSN12MRFCHALLENGE8Resource11LoadProcessE = 0x006a3532;
_ZTIN12MRJCHALLENGE10ItemNeedleE = 0x0069d2e4;
_ZTSN12MRJCHALLENGE10ItemNeedleE = 0x006a3559;
_ZTIN12MRJCHALLENGE10LuigiGroupE = 0x0069d2f0;
_ZTSN12MRJCHALLENGE10LuigiGroupE = 0x006a3576;
_ZTIN12MRJCHALLENGE13LuigiBoxWorld11StateAttachE = 0x0069d2fc;
_ZTSN12MRJCHALLENGE13LuigiBoxWorld11StateAttachE = 0x006a3593;
_ZTIN12MRJCHALLENGE13LuigiBoxWorld11StateDetachE = 0x0069d308;
_ZTSN12MRJCHALLENGE13LuigiBoxWorld11StateDetachE = 0x006a35c0;
_ZTIN12MRJCHALLENGE13LuigiBoxWorld12StateRestartE = 0x0069d314;
_ZTSN12MRJCHALLENGE13LuigiBoxWorld12StateRestartE = 0x006a35ed;
_ZTIN12MRJCHALLENGE13LuigiBoxWorld14StateIntroFallE = 0x0069d320;
_ZTSN12MRJCHALLENGE13LuigiBoxWorld14StateIntroFallE = 0x006a361b;
_ZTIN12MRJCHALLENGE13LuigiBoxWorld14StateSmallJumpE = 0x0069d32c;
_ZTSN12MRJCHALLENGE13LuigiBoxWorld14StateSmallJumpE = 0x006a364b;
_ZTIN12MRJCHALLENGE13LuigiBoxWorld15StateAttackJumpE = 0x0069d338;
_ZTSN12MRJCHALLENGE13LuigiBoxWorld15StateAttackJumpE = 0x006a367b;
_ZTIN12MRJCHALLENGE13LuigiBoxWorld15StateDestroyAllE = 0x0069d344;
_ZTSN12MRJCHALLENGE13LuigiBoxWorld15StateDestroyAllE = 0x006a36ac;
_ZTIN12MRJCHALLENGE13LuigiBoxWorld18StateAttackFailureE = 0x0069d350;
_ZTSN12MRJCHALLENGE13LuigiBoxWorld18StateAttackFailureE = 0x006a36dd;
_ZTIN12MRJCHALLENGE13LuigiBoxWorld18StateAttackSuccessE = 0x0069d35c;
_ZTSN12MRJCHALLENGE13LuigiBoxWorld18StateAttackSuccessE = 0x006a3711;
_ZTIN12MRJCHALLENGE13LuigiBoxWorld9StateJumpE = 0x0069d370;
_ZTSN12MRJCHALLENGE13LuigiBoxWorld9StateJumpE = 0x006a377b;
_ZTIN12MRJCHALLENGE13LuigiBoxWorld9StateMainE = 0x0069d37c;
_ZTSN12MRJCHALLENGE13LuigiBoxWorld9StateMainE = 0x006a37a5;
_ZTIN12MRJCHALLENGE4yaUt11ProcessBaseE = 0x0069d388;
_ZTSN12MRJCHALLENGE4yaUt11ProcessBaseE = 0x006a37cf;
_ZTIN12MRJCHALLENGE4yaUt12AABBColliderE = 0x0069d394;
_ZTSN12MRJCHALLENGE4yaUt12AABBColliderE = 0x006a37f2;
_ZTIN12MRJCHALLENGE4yaUt14SphereColliderE = 0x0069d3a8;
_ZTSN12MRJCHALLENGE4yaUt14SphereColliderE = 0x006a383b;
_ZTIN12MRJCHALLENGE4yaUt19MinigameObjEstimateE = 0x0069d3b4;
_ZTSN12MRJCHALLENGE4yaUt19MinigameObjEstimateE = 0x006a3861;
_ZTIN12MRJCHALLENGE4yaUt25MiracleAtkIntro_MarioJumpE = 0x0069d3c0;
_ZTSN12MRJCHALLENGE4yaUt25MiracleAtkIntro_MarioJumpE = 0x006a388c;
_ZTIN12MRJCHALLENGE4yaUt26MiracleAtkIntro_HoistLuigiE = 0x0069d3cc;
_ZTSN12MRJCHALLENGE4yaUt26MiracleAtkIntro_HoistLuigiE = 0x006a38bd;
_ZTIN12MRJCHALLENGE4yaUt26MiracleAtkIntro_ThrowLuigiE = 0x0069d3d8;
_ZTSN12MRJCHALLENGE4yaUt26MiracleAtkIntro_ThrowLuigiE = 0x006a38ef;
_ZTIN12MRJCHALLENGE4yaUt9IColliderE = 0x0069d404;
_ZTSN12MRJCHALLENGE4yaUt9IColliderE = 0x006a39c6;
_ZTIN12MRJCHALLENGE6AtkCmd10StateIntroE = 0x0069d410;
_ZTSN12MRJCHALLENGE6AtkCmd10StateIntroE = 0x006a39e6;
_ZTIN12MRJCHALLENGE6AtkCmd13StateFinalizeE = 0x0069d41c;
_ZTSN12MRJCHALLENGE6AtkCmd13StateFinalizeE = 0x006a3a0a;
_ZTIN12MRJCHALLENGE6AtkCmd9StateMain18AttachComboManagerE = 0x0069d428;
_ZTSN12MRJCHALLENGE6AtkCmd9StateMain18AttachComboManagerE = 0x006a3a31;
_ZTIN12MRJCHALLENGE6AtkCmd9StateMainE = 0x0069d434;
_ZTSN12MRJCHALLENGE6AtkCmd9StateMainE = 0x006a3a67;
_ZTIN12MRJCHALLENGE6AtkCmdE = 0x0069d440;
_ZTSN12MRJCHALLENGE6AtkCmdE = 0x006a3a89;
_ZTIN12MRJCHALLENGE8ItemBombE = 0x0069d464;
_ZTSN12MRJCHALLENGE8ItemBombE = 0x006a3afc;
_ZTIN12MRJCHALLENGE8ObjMarioE = 0x0069d470;
_ZTSN12MRJCHALLENGE8ObjMarioE = 0x006a3b16;
_ZTIN12MRJCHALLENGE8ResourceE = 0x0069d47c;
_ZTSN12MRJCHALLENGE8ResourceE = 0x006a3b30;
_ZTIN12MRJCHALLENGE9ObjCamera12StateRestartE = 0x0069d488;
_ZTSN12MRJCHALLENGE9ObjCamera12StateRestartE = 0x006a3b4a;
_ZTIN12MRJCHALLENGE9ObjCamera15StateAttackJumpE = 0x0069d494;
_ZTSN12MRJCHALLENGE9ObjCamera15StateAttackJumpE = 0x006a3b73;
_ZTIN12MRJCHALLENGE9ObjCamera9StateMainE = 0x0069d4a0;
_ZTSN12MRJCHALLENGE9ObjCamera9StateMainE = 0x006a3b9f;
_ZTIN12MRWCHALLENGE4yaUt10BtlColReadE = 0x0069d4c4;
_ZTSN12MRWCHALLENGE4yaUt10BtlColReadE = 0x006a3c5c;
_ZTIN12MRWCHALLENGE4yaUt11OBBColliderE = 0x0069d4d0;
_ZTSN12MRWCHALLENGE4yaUt11OBBColliderE = 0x006a3c7e;
_ZTIN12MRWCHALLENGE4yaUt11ProcessBaseE = 0x0069d4dc;
_ZTSN12MRWCHALLENGE4yaUt11ProcessBaseE = 0x006a3ca1;
_ZTIN12MRWCHALLENGE4yaUt12AABBColliderE = 0x0069d4e8;
_ZTSN12MRWCHALLENGE4yaUt12AABBColliderE = 0x006a3cc4;
_ZTIN12MRWCHALLENGE4yaUt14SphereColliderE = 0x0069d4fc;
_ZTSN12MRWCHALLENGE4yaUt14SphereColliderE = 0x006a3d0d;
_ZTIN12MRWCHALLENGE4yaUt26MiracleAtkIntro_HoistLuigiE = 0x0069d508;
_ZTSN12MRWCHALLENGE4yaUt26MiracleAtkIntro_HoistLuigiE = 0x006a3d33;
_ZTIN12MRWCHALLENGE4yaUt26MiracleAtkIntro_ThrowLuigiE = 0x0069d514;
_ZTSN12MRWCHALLENGE4yaUt26MiracleAtkIntro_ThrowLuigiE = 0x006a3d65;
_ZTIN12MRWCHALLENGE4yaUt9IColliderE = 0x0069d538;
_ZTSN12MRWCHALLENGE4yaUt9IColliderE = 0x006a3e14;
_ZTIN12MRWCHALLENGE6AtkCmd10StateIntroE = 0x0069d544;
_ZTSN12MRWCHALLENGE6AtkCmd10StateIntroE = 0x006a3e34;
_ZTIN12MRWCHALLENGE6AtkCmd10StateRally17StateLuigiReEntryE = 0x0069d550;
_ZTSN12MRWCHALLENGE6AtkCmd10StateRally17StateLuigiReEntryE = 0x006a3e58;
_ZTIN12MRWCHALLENGE6AtkCmd10StateRally9StateMainE = 0x0069d55c;
_ZTSN12MRWCHALLENGE6AtkCmd10StateRally9StateMainE = 0x006a3e8f;
_ZTIN12MRWCHALLENGE6AtkCmd10StateRallyE = 0x0069d568;
_ZTSN12MRWCHALLENGE6AtkCmd10StateRallyE = 0x006a3ebd;
_ZTIN12MRWCHALLENGE6AtkCmd12StateRestartE = 0x0069d574;
_ZTSN12MRWCHALLENGE6AtkCmd12StateRestartE = 0x006a3ee1;
_ZTIN12MRWCHALLENGE6AtkCmd13StateFinalizeE = 0x0069d580;
_ZTSN12MRWCHALLENGE6AtkCmd13StateFinalizeE = 0x006a3f07;
_ZTIN12MRWCHALLENGE6AtkCmd17EnemyDeadCallBackE = 0x0069d58c;
_ZTSN12MRWCHALLENGE6AtkCmd17EnemyDeadCallBackE = 0x006a3f2e;
_ZTIN12MRWCHALLENGE6AtkCmd20ItemEffect_SpdChangeE = 0x0069d598;
_ZTSN12MRWCHALLENGE6AtkCmd20ItemEffect_SpdChangeE = 0x006a3f59;
_ZTIN12MRWCHALLENGE6AtkCmd20ItemEffect_SplitStar16StarAppearEffectE = 0x0069d5a4;
_ZTSN12MRWCHALLENGE6AtkCmd20ItemEffect_SplitStar16StarAppearEffectE = 0x006a3f87;
_ZTIN12MRWCHALLENGE6AtkCmd20ItemEffect_SplitStarE = 0x0069d5b0;
_ZTSN12MRWCHALLENGE6AtkCmd20ItemEffect_SplitStarE = 0x006a3fc7;
_ZTIN12MRWCHALLENGE6AtkCmd22ItemEffect_DoubleScoreE = 0x0069d5bc;
_ZTSN12MRWCHALLENGE6AtkCmd22ItemEffect_DoubleScoreE = 0x006a3ff5;
_ZTIN12MRWCHALLENGE6AtkCmd23ApplyItemEffectCallBackE = 0x0069d5c8;
_ZTSN12MRWCHALLENGE6AtkCmd23ApplyItemEffectCallBackE = 0x006a4025;
_ZTIN12MRWCHALLENGE6AtkCmd9StateWallE = 0x0069d5d4;
_ZTSN12MRWCHALLENGE6AtkCmd9StateWallE = 0x006a4056;
_ZTIN12MRWCHALLENGE6AtkCmdE = 0x0069d5e0;
_ZTSN12MRWCHALLENGE6AtkCmdE = 0x006a4078;
_ZTIN12MRWCHALLENGE8Resource11LoadProcessE = 0x0069d5ec;
_ZTSN12MRWCHALLENGE8Resource11LoadProcessE = 0x006a4090;
_ZTIN13BtlObjListWnd7ListWndE = 0x0069d5f8;
_ZTSN13BtlObjListWnd7ListWndE = 0x006a40b7;
_ZTIN14BtlObjAlertMsg9ScrollMsgE = 0x0069d604;
_ZTSN14BtlObjAlertMsg9ScrollMsgE = 0x006a40d1;
_ZTIN14BtlObjIronBall17StompTaskCallbackE = 0x0069d610;
_ZTSN14BtlObjIronBall17StompTaskCallbackE = 0x006a40ee;
_ZTIN14BtlPcDefHammer10ObjDispHamE = 0x0069d61c;
_ZTSN14BtlPcDefHammer10ObjDispHamE = 0x006a4114;
_ZTIN15AkmAtk4Relocate13CmdStateIntroE = 0x0069d628;
_ZTSN15AkmAtk4Relocate13CmdStateIntroE = 0x006a4133;
_ZTIN15AkmAtk4Relocate13IntroInternal8ResourceE = 0x0069d634;
_ZTSN15AkmAtk4Relocate13IntroInternal8ResourceE = 0x006a4156;
_ZTIN15AkmAtk4Relocate14CmdStateEscape12StateHitHoleE = 0x0069d640;
_ZTSN15AkmAtk4Relocate14CmdStateEscape12StateHitHoleE = 0x006a4182;
_ZTIN15AkmAtk4Relocate14CmdStateEscape13StateGameOverE = 0x0069d64c;
_ZTSN15AkmAtk4Relocate14CmdStateEscape13StateGameOverE = 0x006a41b4;
_ZTIN15AkmAtk4Relocate14CmdStateEscape9StateMoveE = 0x0069d658;
_ZTSN15AkmAtk4Relocate14CmdStateEscape9StateMoveE = 0x006a41e7;
_ZTIN15AkmAtk4Relocate14CmdStateEscapeE = 0x0069d664;
_ZTSN15AkmAtk4Relocate14CmdStateEscapeE = 0x006a4215;
_ZTIN15AkmAtk4Relocate14EscapeInternal8MarioObj11StateEscapeE = 0x0069d670;
_ZTSN15AkmAtk4Relocate14EscapeInternal8MarioObj11StateEscapeE = 0x006a4239;
_ZTIN15AkmAtk4Relocate14EscapeInternal8MarioObj12StateHitHoleE = 0x0069d67c;
_ZTSN15AkmAtk4Relocate14EscapeInternal8MarioObj12StateHitHoleE = 0x006a4273;
_ZTIN15AkmAtk4Relocate14EscapeInternal8MarioObj14StateHitBulletE = 0x0069d688;
_ZTSN15AkmAtk4Relocate14EscapeInternal8MarioObj14StateHitBulletE = 0x006a42ae;
_ZTIN15AkmAtk4Relocate14EscapeInternal9AkkumuObj9StateIdleE = 0x0069d694;
_ZTSN15AkmAtk4Relocate14EscapeInternal9AkkumuObj9StateIdleE = 0x006a42eb;
_ZTIN15AkmAtk4Relocate14EscapeInternal9AkkumuObj9StateShotE = 0x0069d6a0;
_ZTSN15AkmAtk4Relocate14EscapeInternal9AkkumuObj9StateShotE = 0x006a4323;
_ZTIN15AkmAtk4Relocate15CmdStateExitEndE = 0x0069d6ac;
_ZTSN15AkmAtk4Relocate15CmdStateExitEndE = 0x006a435b;
_ZTIN15AkmAtk4Relocate15CmdStateLoopEndE = 0x0069d6b8;
_ZTSN15AkmAtk4Relocate15CmdStateLoopEndE = 0x006a4380;
_ZTIN15AkmAtk4Relocate16CmdStateMinigame9StateGameE = 0x0069d6c4;
_ZTSN15AkmAtk4Relocate16CmdStateMinigame9StateGameE = 0x006a43a5;
_ZTIN15AkmAtk4Relocate16CmdStateMinigameE = 0x0069d6d0;
_ZTSN15AkmAtk4Relocate16CmdStateMinigameE = 0x006a43d5;
_ZTIN15AkmAtk4Relocate19CmdStateGameOverEndE = 0x0069d6dc;
_ZTSN15AkmAtk4Relocate19CmdStateGameOverEndE = 0x006a43fb;
_ZTIN15AkmAtk4Relocate23AkmAtk4RelocateInternal7AkmFallE = 0x0069d6e8;
_ZTSN15AkmAtk4Relocate23AkmAtk4RelocateInternal7AkmFallE = 0x006a4424;
_ZTIN15AkmAtk4Relocate4yaUt11ProcessBaseE = 0x0069d6f4;
_ZTSN15AkmAtk4Relocate4yaUt11ProcessBaseE = 0x006a4459;
_ZTIN15AkmAtk4Relocate6AtkCmdE = 0x0069d730;
_ZTSN15AkmAtk4Relocate6AtkCmdE = 0x006a45b6;
_ZTIN15AkmAtk4Relocate7HoleObjE = 0x0069d73c;
_ZTSN15AkmAtk4Relocate7HoleObjE = 0x006a45d1;
_ZTIN15Btl_AtkDreamEgg11AtkPartMainE = 0x0069d750;
_ZTSN15Btl_AtkDreamEgg11AtkPartMainE = 0x006a460a;
_ZTIN15Btl_AtkDreamEgg12AtkPartFinalE = 0x0069d75c;
_ZTSN15Btl_AtkDreamEgg12AtkPartFinalE = 0x006a462b;
_ZTIN15Btl_AtkDreamEgg12AtkPartIntro23UpdaterWaitReadyAtkCompE = 0x0069d768;
_ZTSN15Btl_AtkDreamEgg12AtkPartIntro23UpdaterWaitReadyAtkCompE = 0x006a464d;
_ZTIN15Btl_AtkDreamEgg12AtkPartIntro24UpdaterWaitLoadCompIntroE = 0x0069d774;
_ZTSN15Btl_AtkDreamEgg12AtkPartIntro24UpdaterWaitLoadCompIntroE = 0x006a4688;
_ZTIN15Btl_AtkDreamEgg12AtkPartIntroE = 0x0069d780;
_ZTSN15Btl_AtkDreamEgg12AtkPartIntroE = 0x006a46c4;
_ZTIN15Btl_AtkDreamEgg12AtkPartTotalE = 0x0069d78c;
_ZTSN15Btl_AtkDreamEgg12AtkPartTotalE = 0x006a46e6;
_ZTIN15Btl_AtkDreamEgg18BASceneUpdAtkReadyE = 0x0069d798;
_ZTSN15Btl_AtkDreamEgg18BASceneUpdAtkReadyE = 0x006a4708;
_ZTIN15Btl_AtkDreamEgg19BASceneUpdWhiteFadeE = 0x0069d7a4;
_ZTSN15Btl_AtkDreamEgg19BASceneUpdWhiteFadeE = 0x006a4730;
_ZTIN15Btl_AtkDreamEgg20BASceneUpdFollowBallE = 0x0069d7b0;
_ZTSN15Btl_AtkDreamEgg20BASceneUpdFollowBallE = 0x006a4759;
_ZTIN15Btl_AtkDreamEgg23BASceneUpdL2MoveOmzballE = 0x0069d7bc;
_ZTSN15Btl_AtkDreamEgg23BASceneUpdL2MoveOmzballE = 0x006a4783;
_ZTIN15Btl_AtkDreamEgg24BASceneUpdExplodeOmzballE = 0x0069d7c8;
_ZTSN15Btl_AtkDreamEgg24BASceneUpdExplodeOmzballE = 0x006a47b0;
_ZTIN15Btl_AtkDreamEgg25BASceneUpdL2TryPairHammerE = 0x0069d7d4;
_ZTSN15Btl_AtkDreamEgg25BASceneUpdL2TryPairHammerE = 0x006a47de;
_ZTIN15Btl_AtkDreamEgg25BASceneUpdL2TrySoloHammerE = 0x0069d7e0;
_ZTSN15Btl_AtkDreamEgg25BASceneUpdL2TrySoloHammerE = 0x006a480d;
_ZTIN15Btl_AtkDreamEgg26BASceneUpdPcLandingFromSkyE = 0x0069d7ec;
_ZTSN15Btl_AtkDreamEgg26BASceneUpdPcLandingFromSkyE = 0x006a483c;
_ZTIN15Btl_AtkDreamEgg27BASceneUpdL2ReturnSmashedPcE = 0x0069d7f8;
_ZTSN15Btl_AtkDreamEgg27BASceneUpdL2ReturnSmashedPcE = 0x006a486c;
_ZTIN15Btl_AtkDreamEgg27BASceneUpdL2TryJumpSequenceE = 0x0069d804;
_ZTSN15Btl_AtkDreamEgg27BASceneUpdL2TryJumpSequenceE = 0x006a489d;
_ZTIN15Btl_AtkDreamEgg27BASceneUpdL2TrySoloHamRecovE = 0x0069d810;
_ZTSN15Btl_AtkDreamEgg27BASceneUpdL2TrySoloHamRecovE = 0x006a48ce;
_ZTIN15Btl_AtkDreamEgg28BASceneUpdL2ScreenOutOmzballE = 0x0069d81c;
_ZTSN15Btl_AtkDreamEgg28BASceneUpdL2ScreenOutOmzballE = 0x006a48ff;
_ZTIN15Btl_AtkDreamEgg6ChrCmdE = 0x0069d828;
_ZTSN15Btl_AtkDreamEgg6ChrCmdE = 0x006a4931;
_ZTIN15Btl_AtkDreamEgg7BASceneE = 0x0069d834;
_ZTSN15Btl_AtkDreamEgg7BASceneE = 0x006a494c;
_ZTIN15Btl_AtkDreamEgg8BAPcTeamE = 0x0069d840;
_ZTSN15Btl_AtkDreamEgg8BAPcTeamE = 0x006a4968;
_ZTIN16Btl_AtkHaneruMet10ExplDrawerE = 0x0069d84c;
_ZTSN16Btl_AtkHaneruMet10ExplDrawerE = 0x006a4985;
_ZTIN16Btl_AtkHaneruMet10ObjectBaseE = 0x0069d858;
_ZTSN16Btl_AtkHaneruMet10ObjectBaseE = 0x006a49a6;
_ZTIN16Btl_AtkHaneruMet11AtkPartMainE = 0x0069d864;
_ZTSN16Btl_AtkHaneruMet11AtkPartMainE = 0x006a49c7;
_ZTIN16Btl_AtkHaneruMet12AtkPartFinalE = 0x0069d870;
_ZTSN16Btl_AtkHaneruMet12AtkPartFinalE = 0x006a49e9;
_ZTIN16Btl_AtkHaneruMet12AtkPartIntro23UpdaterWaitReadyAtkCompE = 0x0069d87c;
_ZTSN16Btl_AtkHaneruMet12AtkPartIntro23UpdaterWaitReadyAtkCompE = 0x006a4a0c;
_ZTIN16Btl_AtkHaneruMet12AtkPartIntro24UpdaterWaitLoadCompIntroE = 0x0069d888;
_ZTSN16Btl_AtkHaneruMet12AtkPartIntro24UpdaterWaitLoadCompIntroE = 0x006a4a48;
_ZTIN16Btl_AtkHaneruMet12AtkPartIntroE = 0x0069d894;
_ZTSN16Btl_AtkHaneruMet12AtkPartIntroE = 0x006a4a85;
_ZTIN16Btl_AtkHaneruMet12AtkPartTotalE = 0x0069d8a0;
_ZTSN16Btl_AtkHaneruMet12AtkPartTotalE = 0x006a4aa8;
_ZTIN16Btl_AtkHaneruMet13ChrCmdEndlessE = 0x0069d8ac;
_ZTSN16Btl_AtkHaneruMet13ChrCmdEndlessE = 0x006a4acb;
_ZTIN16Btl_AtkHaneruMet14BASceneEndlessE = 0x0069d8b8;
_ZTSN16Btl_AtkHaneruMet14BASceneEndlessE = 0x006a4aef;
_ZTIN16Btl_AtkHaneruMet17PcTeamUpdAtkReadyE = 0x0069d8c4;
_ZTSN16Btl_AtkHaneruMet17PcTeamUpdAtkReadyE = 0x006a4b14;
_ZTIN16Btl_AtkHaneruMet18AtkPartMainEndlessE = 0x0069d8d0;
_ZTSN16Btl_AtkHaneruMet18AtkPartMainEndlessE = 0x006a4b3c;
_ZTIN16Btl_AtkHaneruMet19AtkPartFinalEndless24UpdaterExplDrawerDeleterE = 0x0069d8dc;
_ZTSN16Btl_AtkHaneruMet19AtkPartFinalEndless24UpdaterExplDrawerDeleterE = 0x006a4b65;
_ZTIN16Btl_AtkHaneruMet19AtkPartFinalEndlessE = 0x0069d8e8;
_ZTSN16Btl_AtkHaneruMet19AtkPartFinalEndlessE = 0x006a4ba9;
_ZTIN16Btl_AtkHaneruMet19AtkPartIntroEndless23UpdaterWaitBootOrCancelE = 0x0069d8f4;
_ZTSN16Btl_AtkHaneruMet19AtkPartIntroEndless23UpdaterWaitBootOrCancelE = 0x006a4bd3;
_ZTIN16Btl_AtkHaneruMet19AtkPartIntroEndless23UpdaterWaitReadyAtkCompE = 0x0069d900;
_ZTSN16Btl_AtkHaneruMet19AtkPartIntroEndless23UpdaterWaitReadyAtkCompE = 0x006a4c16;
_ZTIN16Btl_AtkHaneruMet19AtkPartIntroEndless24UpdaterWaitLoadCompIntroE = 0x0069d90c;
_ZTSN16Btl_AtkHaneruMet19AtkPartIntroEndless24UpdaterWaitLoadCompIntroE = 0x006a4c59;
_ZTIN16Btl_AtkHaneruMet19AtkPartIntroEndlessE = 0x0069d918;
_ZTSN16Btl_AtkHaneruMet19AtkPartIntroEndlessE = 0x006a4c9d;
_ZTIN16Btl_AtkHaneruMet19AtkPartTotalEndlessE = 0x0069d924;
_ZTSN16Btl_AtkHaneruMet19AtkPartTotalEndlessE = 0x006a4cc7;
_ZTIN16Btl_AtkHaneruMet20PcTeamUpdAtkLastJumpE = 0x0069d930;
_ZTSN16Btl_AtkHaneruMet20PcTeamUpdAtkLastJumpE = 0x006a4cf1;
_ZTIN16Btl_AtkHaneruMet21RefCounterSlowAtkModeE = 0x0069d93c;
_ZTSN16Btl_AtkHaneruMet21RefCounterSlowAtkModeE = 0x006a4d1c;
_ZTIN16Btl_AtkHaneruMet23PcTeamUpdAtkFailOutsideE = 0x0069d948;
_ZTSN16Btl_AtkHaneruMet23PcTeamUpdAtkFailOutsideE = 0x006a4d48;
_ZTIN16Btl_AtkHaneruMet24PcTeamUpdAtkIntervalJumpE = 0x0069d954;
_ZTSN16Btl_AtkHaneruMet24PcTeamUpdAtkIntervalJumpE = 0x006a4d76;
_ZTIN16Btl_AtkHaneruMet5ObjCAE = 0x0069d960;
_ZTSN16Btl_AtkHaneruMet5ObjCAE = 0x006a4da5;
_ZTIN16Btl_AtkHaneruMet6ChrCmdE = 0x0069d96c;
_ZTSN16Btl_AtkHaneruMet6ChrCmdE = 0x006a4dc0;
_ZTIN16Btl_AtkHaneruMet7BASceneE = 0x0069d978;
_ZTSN16Btl_AtkHaneruMet7BASceneE = 0x006a4ddc;
_ZTIN17Btl_AtkStarRocket10BAPcBooterE = 0x0069d98c;
_ZTSN17Btl_AtkStarRocket10BAPcBooterE = 0x006a4e18;
_ZTIN17Btl_AtkStarRocket11AtkPartMainE = 0x0069d998;
_ZTSN17Btl_AtkStarRocket11AtkPartMainE = 0x006a4e3a;
_ZTIN17Btl_AtkStarRocket11BAPcPartnerE = 0x0069d9a4;
_ZTSN17Btl_AtkStarRocket11BAPcPartnerE = 0x006a4e5d;
_ZTIN17Btl_AtkStarRocket12AtkPartFinalE = 0x0069d9b0;
_ZTSN17Btl_AtkStarRocket12AtkPartFinalE = 0x006a4e80;
_ZTIN17Btl_AtkStarRocket12AtkPartIntro23UpdaterWaitReadyAtkCompE = 0x0069d9bc;
_ZTSN17Btl_AtkStarRocket12AtkPartIntro23UpdaterWaitReadyAtkCompE = 0x006a4ea4;
_ZTIN17Btl_AtkStarRocket12AtkPartIntro24UpdaterWaitLoadCompIntroE = 0x0069d9c8;
_ZTSN17Btl_AtkStarRocket12AtkPartIntro24UpdaterWaitLoadCompIntroE = 0x006a4ee1;
_ZTIN17Btl_AtkStarRocket12AtkPartIntroE = 0x0069d9d4;
_ZTSN17Btl_AtkStarRocket12AtkPartIntroE = 0x006a4f1f;
_ZTIN17Btl_AtkStarRocket12AtkPartTotalE = 0x0069d9e0;
_ZTSN17Btl_AtkStarRocket12AtkPartTotalE = 0x006a4f43;
_ZTIN17Btl_AtkStarRocket18BASceneUpdAtkReadyE = 0x0069d9ec;
_ZTSN17Btl_AtkStarRocket18BASceneUpdAtkReadyE = 0x006a4f67;
_ZTIN17Btl_AtkStarRocket21BASceneUpdAtkMonStompE = 0x0069d9f8;
_ZTSN17Btl_AtkStarRocket21BASceneUpdAtkMonStompE = 0x006a4f91;
_ZTIN17Btl_AtkStarRocket23BASceneUpdAtkClashFloorE = 0x0069da04;
_ZTSN17Btl_AtkStarRocket23BASceneUpdAtkClashFloorE = 0x006a4fbe;
_ZTIN17Btl_AtkStarRocket23BASceneUpdAtkCtrlRocketE = 0x0069da10;
_ZTSN17Btl_AtkStarRocket23BASceneUpdAtkCtrlRocketE = 0x006a4fed;
_ZTIN17Btl_AtkStarRocket23BASceneUpdAtkRocketRiseE = 0x0069da1c;
_ZTSN17Btl_AtkStarRocket23BASceneUpdAtkRocketRiseE = 0x006a501c;
_ZTIN17Btl_AtkStarRocket25BASceneUpdL2MonStompPerPcE = 0x0069da28;
_ZTSN17Btl_AtkStarRocket25BASceneUpdL2MonStompPerPcE = 0x006a504b;
_ZTIN17Btl_AtkStarRocket6ChrCmdE = 0x0069da34;
_ZTSN17Btl_AtkStarRocket6ChrCmdE = 0x006a507c;
_ZTIN17Btl_AtkStarRocket7BASceneE = 0x0069da40;
_ZTSN17Btl_AtkStarRocket7BASceneE = 0x006a5099;
_ZTIN17Btl_AtkStarRocket8BAPcTeamE = 0x0069da54;
_ZTSN17Btl_AtkStarRocket8BAPcTeamE = 0x006a50d6;
_ZTIN17Btl_AtkTaruTaihou10BAPcBooterE = 0x0069da70;
_ZTSN17Btl_AtkTaruTaihou10BAPcBooterE = 0x006a5135;
_ZTIN17Btl_AtkTaruTaihou11AtkPartMainE = 0x0069da7c;
_ZTSN17Btl_AtkTaruTaihou11AtkPartMainE = 0x006a5157;
_ZTIN17Btl_AtkTaruTaihou11BAPcPartnerE = 0x0069da88;
_ZTSN17Btl_AtkTaruTaihou11BAPcPartnerE = 0x006a517a;
_ZTIN17Btl_AtkTaruTaihou12AtkPartFinalE = 0x0069da94;
_ZTSN17Btl_AtkTaruTaihou12AtkPartFinalE = 0x006a519d;
_ZTIN17Btl_AtkTaruTaihou12AtkPartIntro23UpdaterWaitReadyAtkCompE = 0x0069daa0;
_ZTSN17Btl_AtkTaruTaihou12AtkPartIntro23UpdaterWaitReadyAtkCompE = 0x006a51c1;
_ZTIN17Btl_AtkTaruTaihou12AtkPartIntro24UpdaterWaitLoadCompIntroE = 0x0069daac;
_ZTSN17Btl_AtkTaruTaihou12AtkPartIntro24UpdaterWaitLoadCompIntroE = 0x006a51fe;
_ZTIN17Btl_AtkTaruTaihou12AtkPartIntroE = 0x0069dab8;
_ZTSN17Btl_AtkTaruTaihou12AtkPartIntroE = 0x006a523c;
_ZTIN17Btl_AtkTaruTaihou12AtkPartTotalE = 0x0069dac4;
_ZTSN17Btl_AtkTaruTaihou12AtkPartTotalE = 0x006a5260;
_ZTIN17Btl_AtkTaruTaihou18BASceneUpdAtkReadyE = 0x0069dad0;
_ZTSN17Btl_AtkTaruTaihou18BASceneUpdAtkReadyE = 0x006a5284;
_ZTIN17Btl_AtkTaruTaihou21RefCounterSlowAtkModeE = 0x0069dadc;
_ZTSN17Btl_AtkTaruTaihou21RefCounterSlowAtkModeE = 0x006a52ae;
_ZTIN17Btl_AtkTaruTaihou22BASceneUpdDiveInBarrelE = 0x0069dae8;
_ZTSN17Btl_AtkTaruTaihou22BASceneUpdDiveInBarrelE = 0x006a52db;
_ZTIN17Btl_AtkTaruTaihou22BASceneUpdSelectBarrelE = 0x0069daf4;
_ZTSN17Btl_AtkTaruTaihou22BASceneUpdSelectBarrelE = 0x006a5309;
_ZTIN17Btl_AtkTaruTaihou23BASceneUpdShuffleBarrelE = 0x0069db00;
_ZTSN17Btl_AtkTaruTaihou23BASceneUpdShuffleBarrelE = 0x006a5337;
_ZTIN17Btl_AtkTaruTaihou24BABarrelSingleUpdAtkItemE = 0x0069db0c;
_ZTSN17Btl_AtkTaruTaihou24BABarrelSingleUpdAtkItemE = 0x006a5366;
_ZTIN17Btl_AtkTaruTaihou24BASceneUpdFallLandBarrelE = 0x0069db18;
_ZTSN17Btl_AtkTaruTaihou24BASceneUpdFallLandBarrelE = 0x006a5396;
_ZTIN17Btl_AtkTaruTaihou25BASceneUpdInvisibleBarrelE = 0x0069db24;
_ZTSN17Btl_AtkTaruTaihou25BASceneUpdInvisibleBarrelE = 0x006a53c6;
_ZTIN17Btl_AtkTaruTaihou28BABarrelSingleUpdSelectShakeE = 0x0069db30;
_ZTSN17Btl_AtkTaruTaihou28BABarrelSingleUpdSelectShakeE = 0x006a53f7;
_ZTIN17Btl_AtkTaruTaihou30BABarrelSingleUpdJumpTargetingE = 0x0069db3c;
_ZTSN17Btl_AtkTaruTaihou30BABarrelSingleUpdJumpTargetingE = 0x006a542b;
_ZTIN17Btl_AtkTaruTaihou31BABarrelSingleUpdAtkShootPcFailE = 0x0069db48;
_ZTSN17Btl_AtkTaruTaihou31BABarrelSingleUpdAtkShootPcFailE = 0x006a5461;
_ZTIN17Btl_AtkTaruTaihou31BABarrelSingleUpdAtkShootPcSuccE = 0x0069db54;
_ZTSN17Btl_AtkTaruTaihou31BABarrelSingleUpdAtkShootPcSuccE = 0x006a5498;
_ZTIN17Btl_AtkTaruTaihou6ChrCmdE = 0x0069db60;
_ZTSN17Btl_AtkTaruTaihou6ChrCmdE = 0x006a54cf;
_ZTIN17Btl_AtkTaruTaihou7BASceneE = 0x0069db74;
_ZTSN17Btl_AtkTaruTaihou7BASceneE = 0x006a550a;
_ZTIN17Btl_AtkTaruTaihou8BAPcTeamE = 0x0069db80;
_ZTSN17Btl_AtkTaruTaihou8BAPcTeamE = 0x006a5528;
_ZTIN17Btl_AtkTaruTaihou9BAMonTeamE = 0x0069db94;
_ZTSN17Btl_AtkTaruTaihou9BAMonTeamE = 0x006a5567;
_ZTIN17Btl_OtameshiIntro10AtkPartIMFE = 0x0069dba0;
_ZTSN17Btl_OtameshiIntro10AtkPartIMFE = 0x006a5587;
_ZTIN17Btl_OtameshiIntro7BtlTaskE = 0x0069dbac;
_ZTSN17Btl_OtameshiIntro7BtlTaskE = 0x006a55a9;
_ZTIN18Btl_AtkFuechauBall10AtkPartIMFE = 0x0069dbb8;
_ZTSN18Btl_AtkFuechauBall10AtkPartIMFE = 0x006a55c7;
_ZTIN18Btl_AtkFuechauBall11AtkPartMainE = 0x0069dbcc;
_ZTSN18Btl_AtkFuechauBall11AtkPartMainE = 0x006a560d;
_ZTIN18Btl_AtkFuechauBall11BAColObjectE = 0x0069dbd8;
_ZTSN18Btl_AtkFuechauBall11BAColObjectE = 0x006a5631;
_ZTIN18Btl_AtkFuechauBall12AtkPartFinalE = 0x0069dbe4;
_ZTSN18Btl_AtkFuechauBall12AtkPartFinalE = 0x006a5655;
_ZTIN18Btl_AtkFuechauBall12AtkPartIntro23UpdaterWaitReadyAtkCompE = 0x0069dbf0;
_ZTSN18Btl_AtkFuechauBall12AtkPartIntro23UpdaterWaitReadyAtkCompE = 0x006a567a;
_ZTIN18Btl_AtkFuechauBall12AtkPartIntro24UpdaterWaitLoadCompIntroE = 0x0069dbfc;
_ZTSN18Btl_AtkFuechauBall12AtkPartIntro24UpdaterWaitLoadCompIntroE = 0x006a56b8;
_ZTIN18Btl_AtkFuechauBall12AtkPartIntroE = 0x0069dc08;
_ZTSN18Btl_AtkFuechauBall12AtkPartIntroE = 0x006a56f7;
_ZTIN18Btl_AtkFuechauBall12BABallSingleE = 0x0069dc14;
_ZTSN18Btl_AtkFuechauBall12BABallSingleE = 0x006a571c;
_ZTIN18Btl_AtkFuechauBall15BASceneUpdReadyE = 0x0069dc20;
_ZTSN18Btl_AtkFuechauBall15BASceneUpdReadyE = 0x006a5741;
_ZTIN18Btl_AtkFuechauBall17BASceneUpdMainAtkE = 0x0069dc2c;
_ZTSN18Btl_AtkFuechauBall17BASceneUpdMainAtkE = 0x006a5769;
_ZTIN18Btl_AtkFuechauBall19BABallSingleUpdaterE = 0x0069dc38;
_ZTSN18Btl_AtkFuechauBall19BABallSingleUpdaterE = 0x006a5793;
_ZTIN18Btl_AtkFuechauBall20BASceneUpdWaitActiveE = 0x0069dc44;
_ZTSN18Btl_AtkFuechauBall20BASceneUpdWaitActiveE = 0x006a57bf;
_ZTIN18Btl_AtkFuechauBall23BABallSingleUpdAtkReadyE = 0x0069dc50;
_ZTSN18Btl_AtkFuechauBall23BABallSingleUpdAtkReadyE = 0x006a57ec;
_ZTIN18Btl_AtkFuechauBall24BABallSingleUpdBallLinerE = 0x0069dc5c;
_ZTSN18Btl_AtkFuechauBall24BABallSingleUpdBallLinerE = 0x006a581c;
_ZTIN18Btl_AtkFuechauBall24BABallSingleUpdStepQueueE = 0x0069dc68;
_ZTSN18Btl_AtkFuechauBall24BABallSingleUpdStepQueueE = 0x006a584d;
_ZTIN18Btl_AtkFuechauBall25BABallSingleUpdBallVanishE = 0x0069dc74;
_ZTSN18Btl_AtkFuechauBall25BABallSingleUpdBallVanishE = 0x006a587e;
_ZTIN18Btl_AtkFuechauBall26BABallSingleUpdAppearQueueE = 0x0069dc80;
_ZTSN18Btl_AtkFuechauBall26BABallSingleUpdAppearQueueE = 0x006a58b0;
_ZTIN18Btl_AtkFuechauBall26BABallSingleUpdBallThrowedE = 0x0069dc8c;
_ZTSN18Btl_AtkFuechauBall26BABallSingleUpdBallThrowedE = 0x006a58e3;
_ZTIN18Btl_AtkFuechauBall6ChrCmdE = 0x0069dc98;
_ZTSN18Btl_AtkFuechauBall6ChrCmdE = 0x006a5916;
_ZTIN18Btl_AtkFuechauBall9BAMonSoloE = 0x0069dcbc;
_ZTSN18Btl_AtkFuechauBall9BAMonSoloE = 0x006a5995;
_ZTIN18Btl_AtkRocketBoard10AtkPartIMFE = 0x0069dcd0;
_ZTSN18Btl_AtkRocketBoard10AtkPartIMFE = 0x006a59d7;
_ZTIN18Btl_AtkRocketBoard11AtkPartMainE = 0x0069dcdc;
_ZTSN18Btl_AtkRocketBoard11AtkPartMainE = 0x006a59fa;
_ZTIN18Btl_AtkRocketBoard12AtkPartFinalE = 0x0069dce8;
_ZTSN18Btl_AtkRocketBoard12AtkPartFinalE = 0x006a5a1e;
_ZTIN18Btl_AtkRocketBoard12AtkPartIntro23UpdaterWaitReadyAtkCompE = 0x0069dcf4;
_ZTSN18Btl_AtkRocketBoard12AtkPartIntro23UpdaterWaitReadyAtkCompE = 0x006a5a43;
_ZTIN18Btl_AtkRocketBoard12AtkPartIntro24UpdaterWaitLoadCompIntroE = 0x0069dd00;
_ZTSN18Btl_AtkRocketBoard12AtkPartIntro24UpdaterWaitLoadCompIntroE = 0x006a5a81;
_ZTIN18Btl_AtkRocketBoard12AtkPartIntroE = 0x0069dd0c;
_ZTSN18Btl_AtkRocketBoard12AtkPartIntroE = 0x006a5ac0;
_ZTIN18Btl_AtkRocketBoard6ChrCmdE = 0x0069dd18;
_ZTSN18Btl_AtkRocketBoard6ChrCmdE = 0x006a5ae5;
_ZTIN18Btl_AtkRocketBoard8BAPcTeam14UpdaterAtkMainE = 0x0069dd24;
_ZTSN18Btl_AtkRocketBoard8BAPcTeam14UpdaterAtkMainE = 0x006a5b03;
_ZTIN18Btl_AtkRocketBoard8BAPcTeam15UpdaterAtkReadyE = 0x0069dd30;
_ZTSN18Btl_AtkRocketBoard8BAPcTeam15UpdaterAtkReadyE = 0x006a5b33;
_ZTIN18Btl_AtkRocketBoard8BAPcTeam15UpdaterSubAccelE = 0x0069dd3c;
_ZTSN18Btl_AtkRocketBoard8BAPcTeam15UpdaterSubAccelE = 0x006a5b64;
_ZTIN18Btl_AtkRocketBoard8BAPcTeam17UpdaterAtkMainSubE = 0x0069dd48;
_ZTSN18Btl_AtkRocketBoard8BAPcTeam17UpdaterAtkMainSubE = 0x006a5b95;
_ZTIN18Btl_AtkRocketBoard8BAPcTeam17UpdaterSubNeutralE = 0x0069dd54;
_ZTSN18Btl_AtkRocketBoard8BAPcTeam17UpdaterSubNeutralE = 0x006a5bc8;
_ZTIN18Btl_AtkRocketBoard8BAPcTeam18UpdaterSubSpdLimitE = 0x0069dd60;
_ZTSN18Btl_AtkRocketBoard8BAPcTeam18UpdaterSubSpdLimitE = 0x006a5bfb;
_ZTIN18Btl_AtkRocketBoard8BAPcTeam20UpdaterAtkEndCrashedE = 0x0069dd6c;
_ZTSN18Btl_AtkRocketBoard8BAPcTeam20UpdaterAtkEndCrashedE = 0x006a5c2f;
_ZTIN18Btl_AtkRocketBoard8BAPcTeam20UpdaterSubSpinHammerE = 0x0069dd78;
_ZTSN18Btl_AtkRocketBoard8BAPcTeam20UpdaterSubSpinHammerE = 0x006a5c65;
_ZTIN18Btl_AtkRocketBoard8BAPcTeam24UpdaterSubSpinHammerMissE = 0x0069dd84;
_ZTSN18Btl_AtkRocketBoard8BAPcTeam24UpdaterSubSpinHammerMissE = 0x006a5c9b;
_ZTIN18Btl_AtkRocketBoard8BAPcTeam26UpdaterSubSpinReadyNeutralE = 0x0069dd90;
_ZTSN18Btl_AtkRocketBoard8BAPcTeam26UpdaterSubSpinReadyNeutralE = 0x006a5cd5;
_ZTIN18Btl_AtkRocketBoard9BAMonSolo15UpdaterFlyDodgeE = 0x0069dd9c;
_ZTSN18Btl_AtkRocketBoard9BAMonSolo15UpdaterFlyDodgeE = 0x006a5d11;
_ZTIN18Btl_AtkRocketBoard9BAMonSolo19UpdaterAtkScUchiageE = 0x0069dda8;
_ZTSN18Btl_AtkRocketBoard9BAMonSolo19UpdaterAtkScUchiageE = 0x006a5d43;
_ZTIN19Btl_AtkBaibaiFlower11UpdaterMainE = 0x0069ddc4;
_ZTSN19Btl_AtkBaibaiFlower11UpdaterMainE = 0x006a5dc3;
_ZTIN19Btl_AtkBaibaiFlower12AtkPartFinalE = 0x0069ddd0;
_ZTSN19Btl_AtkBaibaiFlower12AtkPartFinalE = 0x006a5de8;
_ZTIN19Btl_AtkBaibaiFlower12AtkPartIntro23UpdaterWaitReadyAtkCompE = 0x0069dddc;
_ZTSN19Btl_AtkBaibaiFlower12AtkPartIntro23UpdaterWaitReadyAtkCompE = 0x006a5e0e;
_ZTIN19Btl_AtkBaibaiFlower12AtkPartIntro24UpdaterWaitLoadCompIntroE = 0x0069dde8;
_ZTSN19Btl_AtkBaibaiFlower12AtkPartIntro24UpdaterWaitLoadCompIntroE = 0x006a5e4d;
_ZTIN19Btl_AtkBaibaiFlower12AtkPartIntroE = 0x0069ddf4;
_ZTSN19Btl_AtkBaibaiFlower12AtkPartIntroE = 0x006a5e8d;
_ZTIN19Btl_AtkBaibaiFlower19BAPcTeamUpdAtkReadyE = 0x0069de00;
_ZTSN19Btl_AtkBaibaiFlower19BAPcTeamUpdAtkReadyE = 0x006a5eb3;
_ZTIN19Btl_AtkBaibaiFlower21PcSoloUpdJumpAtkAbortE = 0x0069de0c;
_ZTSN19Btl_AtkBaibaiFlower21PcSoloUpdJumpAtkAbortE = 0x006a5ee0;
_ZTIN19Btl_AtkBaibaiFlower21PcSoloUpdJumpAtkToMonE = 0x0069de18;
_ZTSN19Btl_AtkBaibaiFlower21PcSoloUpdJumpAtkToMonE = 0x006a5f0f;
_ZTIN19Btl_AtkBaibaiFlower21PcSoloUpdLineMovePartE = 0x0069de24;
_ZTSN19Btl_AtkBaibaiFlower21PcSoloUpdLineMovePartE = 0x006a5f3e;
_ZTIN19Btl_AtkBaibaiFlower21PcSoloUpdPcBranchPartE = 0x0069de30;
_ZTSN19Btl_AtkBaibaiFlower21PcSoloUpdPcBranchPartE = 0x006a5f6d;
_ZTIN19Btl_AtkBaibaiFlower21PcTeamUpdPcBranchPartE = 0x0069de3c;
_ZTSN19Btl_AtkBaibaiFlower21PcTeamUpdPcBranchPartE = 0x006a5f9c;
_ZTIN19Btl_AtkBaibaiFlower21RefCounterSlowAtkModeE = 0x0069de48;
_ZTSN19Btl_AtkBaibaiFlower21RefCounterSlowAtkModeE = 0x006a5fcb;
_ZTIN19Btl_AtkBaibaiFlower23PcSoloUpdJumpAtkSuccessE = 0x0069de54;
_ZTSN19Btl_AtkBaibaiFlower23PcSoloUpdJumpAtkSuccessE = 0x006a5ffa;
_ZTIN19Btl_AtkBaibaiFlower23PcSoloUpdJumpAtkThroughE = 0x0069de60;
_ZTSN19Btl_AtkBaibaiFlower23PcSoloUpdJumpAtkThroughE = 0x006a602b;
_ZTIN19Btl_AtkBaibaiFlower25PcTeamUpdJumpAtkToMonPartE = 0x0069de6c;
_ZTSN19Btl_AtkBaibaiFlower25PcTeamUpdJumpAtkToMonPartE = 0x006a605c;
_ZTIN19Btl_AtkBaibaiFlower29PcSoloUpdJumpAtkFailBadTimingE = 0x0069de78;
_ZTSN19Btl_AtkBaibaiFlower29PcSoloUpdJumpAtkFailBadTimingE = 0x006a608f;
_ZTIN19Btl_AtkBaibaiFlower29PcSoloUpdMoveToBackCirclePartE = 0x0069de84;
_ZTSN19Btl_AtkBaibaiFlower29PcSoloUpdMoveToBackCirclePartE = 0x006a60c6;
_ZTIN19Btl_AtkBaibaiFlower30PcSoloUpdJumpAtkFailStompSpikeE = 0x0069de90;
_ZTSN19Btl_AtkBaibaiFlower30PcSoloUpdJumpAtkFailStompSpikeE = 0x006a60fd;
_ZTIN19Btl_AtkBaibaiFlower30PcTeamUpdPcLineMovePartOrderedE = 0x0069de9c;
_ZTSN19Btl_AtkBaibaiFlower30PcTeamUpdPcLineMovePartOrderedE = 0x006a6135;
_ZTIN19Btl_AtkBaibaiFlower6ChrCmdE = 0x0069dea8;
_ZTSN19Btl_AtkBaibaiFlower6ChrCmdE = 0x006a616d;
_ZTIN19Btl_AtkBaibaiFlower9BAMonSolo15UpdaterMonStompE = 0x0069debc;
_ZTSN19Btl_AtkBaibaiFlower9BAMonSolo15UpdaterMonStompE = 0x006a61ad;
_ZTIN19Btl_AtkBaibaiTaihou11AtkPartMainE = 0x0069ded0;
_ZTSN19Btl_AtkBaibaiTaihou11AtkPartMainE = 0x006a6202;
_ZTIN19Btl_AtkBaibaiTaihou12AtkPartFinalE = 0x0069dedc;
_ZTSN19Btl_AtkBaibaiTaihou12AtkPartFinalE = 0x006a6227;
_ZTIN19Btl_AtkBaibaiTaihou12AtkPartIntro23UpdaterWaitReadyAtkCompE = 0x0069dee8;
_ZTSN19Btl_AtkBaibaiTaihou12AtkPartIntro23UpdaterWaitReadyAtkCompE = 0x006a624d;
_ZTIN19Btl_AtkBaibaiTaihou12AtkPartIntro24UpdaterWaitLoadCompIntroE = 0x0069def4;
_ZTSN19Btl_AtkBaibaiTaihou12AtkPartIntro24UpdaterWaitLoadCompIntroE = 0x006a628c;
_ZTIN19Btl_AtkBaibaiTaihou12AtkPartIntroE = 0x0069df00;
_ZTSN19Btl_AtkBaibaiTaihou12AtkPartIntroE = 0x006a62cc;
_ZTIN19Btl_AtkBaibaiTaihou16PcSoloUpdJump1stE = 0x0069df0c;
_ZTSN19Btl_AtkBaibaiTaihou16PcSoloUpdJump1stE = 0x006a62f2;
_ZTIN19Btl_AtkBaibaiTaihou18PcSoloUpdJumpAbortE = 0x0069df18;
_ZTSN19Btl_AtkBaibaiTaihou18PcSoloUpdJumpAbortE = 0x006a631c;
_ZTIN19Btl_AtkBaibaiTaihou19BAPcTeamUpdAtkReadyE = 0x0069df24;
_ZTSN19Btl_AtkBaibaiTaihou19BAPcTeamUpdAtkReadyE = 0x006a6348;
_ZTIN19Btl_AtkBaibaiTaihou20PcSoloUpdCannonShootE = 0x0069df30;
_ZTSN19Btl_AtkBaibaiTaihou20PcSoloUpdCannonShootE = 0x006a6375;
_ZTIN19Btl_AtkBaibaiTaihou20PcTeamUpdCannonShootE = 0x0069df3c;
_ZTSN19Btl_AtkBaibaiTaihou20PcTeamUpdCannonShootE = 0x006a63a3;
_ZTIN19Btl_AtkBaibaiTaihou20PcTeamUpdJump1stPartE = 0x0069df48;
_ZTSN19Btl_AtkBaibaiTaihou20PcTeamUpdJump1stPartE = 0x006a63d1;
_ZTIN19Btl_AtkBaibaiTaihou20PcTeamUpdJump2ndPartE = 0x0069df54;
_ZTSN19Btl_AtkBaibaiTaihou20PcTeamUpdJump2ndPartE = 0x006a63ff;
_ZTIN19Btl_AtkBaibaiTaihou22PcSoloUpdJump2ndFinishE = 0x0069df60;
_ZTSN19Btl_AtkBaibaiTaihou22PcSoloUpdJump2ndFinishE = 0x006a642d;
_ZTIN19Btl_AtkBaibaiTaihou23PcSoloUpdJump1stSuccessE = 0x0069df6c;
_ZTSN19Btl_AtkBaibaiTaihou23PcSoloUpdJump1stSuccessE = 0x006a645d;
_ZTIN19Btl_AtkBaibaiTaihou23PcSoloUpdJump1stThroughE = 0x0069df78;
_ZTSN19Btl_AtkBaibaiTaihou23PcSoloUpdJump1stThroughE = 0x006a648e;
_ZTIN19Btl_AtkBaibaiTaihou23PcSoloUpdJump2ndSuccessE = 0x0069df84;
_ZTSN19Btl_AtkBaibaiTaihou23PcSoloUpdJump2ndSuccessE = 0x006a64bf;
_ZTIN19Btl_AtkBaibaiTaihou26PcSoloUpdJumpFailBadTimingE = 0x0069df90;
_ZTSN19Btl_AtkBaibaiTaihou26PcSoloUpdJumpFailBadTimingE = 0x006a64f0;
_ZTIN19Btl_AtkBaibaiTaihou27PcSoloUpdJumpFailStompSpikeE = 0x0069df9c;
_ZTSN19Btl_AtkBaibaiTaihou27PcSoloUpdJumpFailStompSpikeE = 0x006a6524;
_ZTIN19Btl_AtkBaibaiTaihou6ChrCmdE = 0x0069dfa8;
_ZTSN19Btl_AtkBaibaiTaihou6ChrCmdE = 0x006a6559;
_ZTIN20Btl_AtkAchichiFlower10AtkPartIMFE = 0x0069dfc4;
_ZTSN20Btl_AtkAchichiFlower10AtkPartIMFE = 0x006a65bb;
_ZTIN20Btl_AtkAchichiFlower11AtkPartMainE = 0x0069dfd0;
_ZTSN20Btl_AtkAchichiFlower11AtkPartMainE = 0x006a65e0;
_ZTIN20Btl_AtkAchichiFlower12AtkPartFinalE = 0x0069dfdc;
_ZTSN20Btl_AtkAchichiFlower12AtkPartFinalE = 0x006a6606;
_ZTIN20Btl_AtkAchichiFlower12AtkPartIntro23UpdaterWaitReadyAtkCompE = 0x0069dfe8;
_ZTSN20Btl_AtkAchichiFlower12AtkPartIntro23UpdaterWaitReadyAtkCompE = 0x006a662d;
_ZTIN20Btl_AtkAchichiFlower12AtkPartIntro24UpdaterWaitLoadCompIntroE = 0x0069dff4;
_ZTSN20Btl_AtkAchichiFlower12AtkPartIntro24UpdaterWaitLoadCompIntroE = 0x006a666d;
_ZTIN20Btl_AtkAchichiFlower12AtkPartIntroE = 0x0069e000;
_ZTSN20Btl_AtkAchichiFlower12AtkPartIntroE = 0x006a66ae;
_ZTIN20Btl_AtkAchichiFlower13BASceneNormalE = 0x0069e00c;
_ZTSN20Btl_AtkAchichiFlower13BASceneNormalE = 0x006a66d5;
_ZTIN20Btl_AtkAchichiFlower16SceneUpdAtkEnterE = 0x0069e018;
_ZTSN20Btl_AtkAchichiFlower16SceneUpdAtkEnterE = 0x006a66fd;
_ZTIN20Btl_AtkAchichiFlower17SceneUpdAtkExtendE = 0x0069e024;
_ZTSN20Btl_AtkAchichiFlower17SceneUpdAtkExtendE = 0x006a6728;
_ZTIN20Btl_AtkAchichiFlower17SceneUpdAtkFinishE = 0x0069e030;
_ZTSN20Btl_AtkAchichiFlower17SceneUpdAtkFinishE = 0x006a6754;
_ZTIN20Btl_AtkAchichiFlower17SceneUpdAtkNormalE = 0x0069e03c;
_ZTSN20Btl_AtkAchichiFlower17SceneUpdAtkNormalE = 0x006a6780;
_ZTIN20Btl_AtkAchichiFlower18MonSoloUpdFireMoveE = 0x0069e048;
_ZTSN20Btl_AtkAchichiFlower18MonSoloUpdFireMoveE = 0x006a67ac;
_ZTIN20Btl_AtkAchichiFlower19MonSoloUpdFireBurstE = 0x0069e054;
_ZTSN20Btl_AtkAchichiFlower19MonSoloUpdFireBurstE = 0x006a67d9;
_ZTIN20Btl_AtkAchichiFlower19MonTeamUpdFireBurstE = 0x0069e060;
_ZTSN20Btl_AtkAchichiFlower19MonTeamUpdFireBurstE = 0x006a6807;
_ZTIN20Btl_AtkAchichiFlower21PcSoloUpdExtendAppearE = 0x0069e06c;
_ZTSN20Btl_AtkAchichiFlower21PcSoloUpdExtendAppearE = 0x006a6835;
_ZTIN20Btl_AtkAchichiFlower22PcSoloUpdFireballBurstE = 0x0069e078;
_ZTSN20Btl_AtkAchichiFlower22PcSoloUpdFireballBurstE = 0x006a6865;
_ZTIN20Btl_AtkAchichiFlower22PcSoloUpdFireballThrowE = 0x0069e084;
_ZTSN20Btl_AtkAchichiFlower22PcSoloUpdFireballThrowE = 0x006a6896;
_ZTIN20Btl_AtkAchichiFlower23PcSoloUpdFireballGrowthE = 0x0069e090;
_ZTSN20Btl_AtkAchichiFlower23PcSoloUpdFireballGrowthE = 0x006a68c7;
_ZTIN20Btl_AtkAchichiFlower24PcSoloUpdChangeToFireCosE = 0x0069e09c;
_ZTSN20Btl_AtkAchichiFlower24PcSoloUpdChangeToFireCosE = 0x006a68f9;
_ZTIN20Btl_AtkAchichiFlower26PcSoloUpdChangeToNormalCosE = 0x0069e0a8;
_ZTSN20Btl_AtkAchichiFlower26PcSoloUpdChangeToNormalCosE = 0x006a692c;
_ZTIN20Btl_AtkAchichiFlower6ChrCmdE = 0x0069e0b4;
_ZTSN20Btl_AtkAchichiFlower6ChrCmdE = 0x006a6961;
_ZTIN20Btl_AtkSnipePachinko11AtkPartMainE = 0x0069e0c8;
_ZTSN20Btl_AtkSnipePachinko11AtkPartMainE = 0x006a69a2;
_ZTIN20Btl_AtkSnipePachinko12AtkPartFinalE = 0x0069e0d4;
_ZTSN20Btl_AtkSnipePachinko12AtkPartFinalE = 0x006a69c8;
_ZTIN20Btl_AtkSnipePachinko12AtkPartIntro23UpdaterWaitReadyAtkCompE = 0x0069e0e0;
_ZTSN20Btl_AtkSnipePachinko12AtkPartIntro23UpdaterWaitReadyAtkCompE = 0x006a69ef;
_ZTIN20Btl_AtkSnipePachinko12AtkPartIntro24UpdaterWaitLoadCompIntroE = 0x0069e0ec;
_ZTSN20Btl_AtkSnipePachinko12AtkPartIntro24UpdaterWaitLoadCompIntroE = 0x006a6a2f;
_ZTIN20Btl_AtkSnipePachinko12AtkPartIntroE = 0x0069e0f8;
_ZTSN20Btl_AtkSnipePachinko12AtkPartIntroE = 0x006a6a70;
_ZTIN20Btl_AtkSnipePachinko12AtkPartTotalE = 0x0069e104;
_ZTSN20Btl_AtkSnipePachinko12AtkPartTotalE = 0x006a6a97;
_ZTIN20Btl_AtkSnipePachinko18BASceneUpdAtkReadyE = 0x0069e110;
_ZTSN20Btl_AtkSnipePachinko18BASceneUpdAtkReadyE = 0x006a6abe;
_ZTIN20Btl_AtkSnipePachinko19BAMonUpdDamageSmashE = 0x0069e11c;
_ZTSN20Btl_AtkSnipePachinko19BAMonUpdDamageSmashE = 0x006a6aeb;
_ZTIN20Btl_AtkSnipePachinko20BAMonUpdDamageNormalE = 0x0069e128;
_ZTSN20Btl_AtkSnipePachinko20BAMonUpdDamageNormalE = 0x006a6b19;
_ZTIN20Btl_AtkSnipePachinko21BASceneUpdAtkChargingE = 0x0069e134;
_ZTSN20Btl_AtkSnipePachinko21BASceneUpdAtkChargingE = 0x006a6b48;
_ZTIN20Btl_AtkSnipePachinko22BASceneUpdAtkTargetingE = 0x0069e140;
_ZTSN20Btl_AtkSnipePachinko22BASceneUpdAtkTargetingE = 0x006a6b78;
_ZTIN20Btl_AtkSnipePachinko23BASceneUpdAtkClashFloorE = 0x0069e14c;
_ZTSN20Btl_AtkSnipePachinko23BASceneUpdAtkClashFloorE = 0x006a6ba9;
_ZTIN20Btl_AtkSnipePachinko23BASceneUpdAtkPostHitMonE = 0x0069e158;
_ZTSN20Btl_AtkSnipePachinko23BASceneUpdAtkPostHitMonE = 0x006a6bdb;
_ZTIN20Btl_AtkSnipePachinko24BASceneUpdAtkLostStaminaE = 0x0069e164;
_ZTSN20Btl_AtkSnipePachinko24BASceneUpdAtkLostStaminaE = 0x006a6c0d;
_ZTIN20Btl_AtkSnipePachinko25BASceneUpdAtkShootHitStopE = 0x0069e170;
_ZTSN20Btl_AtkSnipePachinko25BASceneUpdAtkShootHitStopE = 0x006a6c40;
_ZTIN20Btl_AtkSnipePachinko26BASceneUpdAtkShootPiercingE = 0x0069e17c;
_ZTSN20Btl_AtkSnipePachinko26BASceneUpdAtkShootPiercingE = 0x006a6c74;
_ZTIN20Btl_AtkSnipePachinko34BASceneUpdAtkPachinkoBeltSpringExpE = 0x0069e188;
_ZTSN20Btl_AtkSnipePachinko34BASceneUpdAtkPachinkoBeltSpringExpE = 0x006a6ca9;
_ZTIN20Btl_AtkSnipePachinko6ChrCmdE = 0x0069e194;
_ZTSN20Btl_AtkSnipePachinko6ChrCmdE = 0x006a6ce6;
_ZTIN20Btl_AtkSnipePachinko7BASceneE = 0x0069e1a0;
_ZTSN20Btl_AtkSnipePachinko7BASceneE = 0x006a6d06;
_ZTIN20Btl_AtkSnipePachinko8BAPcTeamE = 0x0069e1ac;
_ZTSN20Btl_AtkSnipePachinko8BAPcTeamE = 0x006a6d27;
_ZTIN20Btl_AtkSnipePachinko9BAMonTeamE = 0x0069e1c0;
_ZTSN20Btl_AtkSnipePachinko9BAMonTeamE = 0x006a6d6c;
_ZTIN26Btl_AtkStarRocketChallenge10BAPcBooterE = 0x0069e1cc;
_ZTSN26Btl_AtkStarRocketChallenge10BAPcBooterE = 0x006a6d8f;
_ZTIN26Btl_AtkStarRocketChallenge11AtkPartMainE = 0x0069e1d8;
_ZTSN26Btl_AtkStarRocketChallenge11AtkPartMainE = 0x006a6dba;
_ZTIN26Btl_AtkStarRocketChallenge11BAPcPartnerE = 0x0069e1e4;
_ZTSN26Btl_AtkStarRocketChallenge11BAPcPartnerE = 0x006a6de6;
_ZTIN26Btl_AtkStarRocketChallenge12AtkPartFinalE = 0x0069e1f0;
_ZTSN26Btl_AtkStarRocketChallenge12AtkPartFinalE = 0x006a6e12;
_ZTIN26Btl_AtkStarRocketChallenge12AtkPartIntro23UpdaterWaitReadyAtkCompE = 0x0069e1fc;
_ZTSN26Btl_AtkStarRocketChallenge12AtkPartIntro23UpdaterWaitReadyAtkCompE = 0x006a6e3f;
_ZTIN26Btl_AtkStarRocketChallenge12AtkPartIntroE = 0x0069e208;
_ZTSN26Btl_AtkStarRocketChallenge12AtkPartIntroE = 0x006a6e85;
_ZTIN26Btl_AtkStarRocketChallenge12AtkPartTotalE = 0x0069e214;
_ZTSN26Btl_AtkStarRocketChallenge12AtkPartTotalE = 0x006a6eb2;
_ZTIN26Btl_AtkStarRocketChallenge18BASceneUpdAtkReadyE = 0x0069e220;
_ZTSN26Btl_AtkStarRocketChallenge18BASceneUpdAtkReadyE = 0x006a6edf;
_ZTIN26Btl_AtkStarRocketChallenge23BASceneUpdAtkClashFloorE = 0x0069e22c;
_ZTSN26Btl_AtkStarRocketChallenge23BASceneUpdAtkClashFloorE = 0x006a6f12;
_ZTIN26Btl_AtkStarRocketChallenge23BASceneUpdAtkCtrlRocketE = 0x0069e238;
_ZTSN26Btl_AtkStarRocketChallenge23BASceneUpdAtkCtrlRocketE = 0x006a6f4a;
_ZTIN26Btl_AtkStarRocketChallenge24BASceneUpdAtkEmptyEnergyE = 0x0069e244;
_ZTSN26Btl_AtkStarRocketChallenge24BASceneUpdAtkEmptyEnergyE = 0x006a6f82;
_ZTIN26Btl_AtkStarRocketChallenge31BASceneUpdAtkClashDamageBalloonE = 0x0069e250;
_ZTSN26Btl_AtkStarRocketChallenge31BASceneUpdAtkClashDamageBalloonE = 0x006a6fbb;
_ZTIN26Btl_AtkStarRocketChallenge33BASceneUpdAtkFinishCounterStoppedE = 0x0069e25c;
_ZTSN26Btl_AtkStarRocketChallenge33BASceneUpdAtkFinishCounterStoppedE = 0x006a6ffb;
_ZTIN26Btl_AtkStarRocketChallenge6ChrCmdE = 0x0069e268;
_ZTSN26Btl_AtkStarRocketChallenge6ChrCmdE = 0x006a703d;
_ZTIN26Btl_AtkStarRocketChallenge7BASceneE = 0x0069e274;
_ZTSN26Btl_AtkStarRocketChallenge7BASceneE = 0x006a7063;
_ZTIN26Btl_AtkStarRocketChallenge8BAPcTeamE = 0x0069e288;
_ZTSN26Btl_AtkStarRocketChallenge8BAPcTeamE = 0x006a70b2;
_ZTIN27Btl_AtkFuechauBallChallenge10AtkPartIMFE = 0x0069e294;
_ZTSN27Btl_AtkFuechauBallChallenge10AtkPartIMFE = 0x006a70da;
_ZTIN27Btl_AtkFuechauBallChallenge11AtkPartMainE = 0x0069e2a8;
_ZTSN27Btl_AtkFuechauBallChallenge11AtkPartMainE = 0x006a7132;
_ZTIN27Btl_AtkFuechauBallChallenge11BAColObjectE = 0x0069e2b4;
_ZTSN27Btl_AtkFuechauBallChallenge11BAColObjectE = 0x006a715f;
_ZTIN27Btl_AtkFuechauBallChallenge12AtkPartFinalE = 0x0069e2c0;
_ZTSN27Btl_AtkFuechauBallChallenge12AtkPartFinalE = 0x006a718c;
_ZTIN27Btl_AtkFuechauBallChallenge12AtkPartIntro23UpdaterWaitReadyAtkCompE = 0x0069e2cc;
_ZTSN27Btl_AtkFuechauBallChallenge12AtkPartIntro23UpdaterWaitReadyAtkCompE = 0x006a71ba;
_ZTIN27Btl_AtkFuechauBallChallenge12AtkPartIntroE = 0x0069e2d8;
_ZTSN27Btl_AtkFuechauBallChallenge12AtkPartIntroE = 0x006a7201;
_ZTIN27Btl_AtkFuechauBallChallenge12BABallSingleE = 0x0069e2e4;
_ZTSN27Btl_AtkFuechauBallChallenge12BABallSingleE = 0x006a722f;
_ZTIN27Btl_AtkFuechauBallChallenge15BASceneUpdReadyE = 0x0069e2f0;
_ZTSN27Btl_AtkFuechauBallChallenge15BASceneUpdReadyE = 0x006a725d;
_ZTIN27Btl_AtkFuechauBallChallenge17BASceneUpdMainAtkE = 0x0069e2fc;
_ZTSN27Btl_AtkFuechauBallChallenge17BASceneUpdMainAtkE = 0x006a728e;
_ZTIN27Btl_AtkFuechauBallChallenge19BABallSingleUpdaterE = 0x0069e308;
_ZTSN27Btl_AtkFuechauBallChallenge19BABallSingleUpdaterE = 0x006a72c1;
_ZTIN27Btl_AtkFuechauBallChallenge20BASceneUpdWaitActiveE = 0x0069e314;
_ZTSN27Btl_AtkFuechauBallChallenge20BASceneUpdWaitActiveE = 0x006a72f6;
_ZTIN27Btl_AtkFuechauBallChallenge23BABallSingleUpdAtkReadyE = 0x0069e320;
_ZTSN27Btl_AtkFuechauBallChallenge23BABallSingleUpdAtkReadyE = 0x006a732c;
_ZTIN27Btl_AtkFuechauBallChallenge24BABallSingleUpdBallLinerE = 0x0069e32c;
_ZTSN27Btl_AtkFuechauBallChallenge24BABallSingleUpdBallLinerE = 0x006a7365;
_ZTIN27Btl_AtkFuechauBallChallenge24BABallSingleUpdStepQueueE = 0x0069e338;
_ZTSN27Btl_AtkFuechauBallChallenge24BABallSingleUpdStepQueueE = 0x006a739f;
_ZTIN27Btl_AtkFuechauBallChallenge25BABallSingleUpdBallVanishE = 0x0069e344;
_ZTSN27Btl_AtkFuechauBallChallenge25BABallSingleUpdBallVanishE = 0x006a73d9;
_ZTIN27Btl_AtkFuechauBallChallenge26BABallSingleUpdAppearQueueE = 0x0069e350;
_ZTSN27Btl_AtkFuechauBallChallenge26BABallSingleUpdAppearQueueE = 0x006a7414;
_ZTIN27Btl_AtkFuechauBallChallenge26BABallSingleUpdBallThrowedE = 0x0069e35c;
_ZTSN27Btl_AtkFuechauBallChallenge26BABallSingleUpdBallThrowedE = 0x006a7450;
_ZTIN27Btl_AtkFuechauBallChallenge32BABallSingleUpdBallThrowedHiddenE = 0x0069e368;
_ZTSN27Btl_AtkFuechauBallChallenge32BABallSingleUpdBallThrowedHiddenE = 0x006a748c;
_ZTIN27Btl_AtkFuechauBallChallenge32BABallSingleUpdBallThrowedNormalE = 0x0069e374;
_ZTSN27Btl_AtkFuechauBallChallenge32BABallSingleUpdBallThrowedNormalE = 0x006a74ce;
_ZTIN27Btl_AtkFuechauBallChallenge34BABallSingleUpdBallThrowedTimeStopE = 0x0069e380;
_ZTSN27Btl_AtkFuechauBallChallenge34BABallSingleUpdBallThrowedTimeStopE = 0x006a7510;
_ZTIN27Btl_AtkFuechauBallChallenge6ChrCmdE = 0x0069e38c;
_ZTSN27Btl_AtkFuechauBallChallenge6ChrCmdE = 0x006a7554;
_ZTIN27Btl_AtkFuechauBallChallenge9BAMonSoloE = 0x0069e3b0;
_ZTSN27Btl_AtkFuechauBallChallenge9BAMonSoloE = 0x006a75f7;
_ZTIN28Btl_AtkBaibaiTaihouChallenge11AtkPartMainE = 0x0069e3c4;
_ZTSN28Btl_AtkBaibaiTaihouChallenge11AtkPartMainE = 0x006a764b;
_ZTIN28Btl_AtkBaibaiTaihouChallenge12AtkPartFinalE = 0x0069e3d0;
_ZTSN28Btl_AtkBaibaiTaihouChallenge12AtkPartFinalE = 0x006a7679;
_ZTIN28Btl_AtkBaibaiTaihouChallenge12AtkPartIntro23UpdaterWaitReadyAtkCompE = 0x0069e3dc;
_ZTSN28Btl_AtkBaibaiTaihouChallenge12AtkPartIntro23UpdaterWaitReadyAtkCompE = 0x006a76a8;
_ZTIN28Btl_AtkBaibaiTaihouChallenge12AtkPartIntroE = 0x0069e3e8;
_ZTSN28Btl_AtkBaibaiTaihouChallenge12AtkPartIntroE = 0x006a76f0;
_ZTIN28Btl_AtkBaibaiTaihouChallenge16PcSoloUpdJump1stE = 0x0069e3f4;
_ZTSN28Btl_AtkBaibaiTaihouChallenge16PcSoloUpdJump1stE = 0x006a771f;
_ZTIN28Btl_AtkBaibaiTaihouChallenge18PcSoloUpdJumpAbortE = 0x0069e400;
_ZTSN28Btl_AtkBaibaiTaihouChallenge18PcSoloUpdJumpAbortE = 0x006a7752;
_ZTIN28Btl_AtkBaibaiTaihouChallenge19BAPcTeamUpdAtkReadyE = 0x0069e40c;
_ZTSN28Btl_AtkBaibaiTaihouChallenge19BAPcTeamUpdAtkReadyE = 0x006a7787;
_ZTIN28Btl_AtkBaibaiTaihouChallenge20PcSoloUpdCannonShootE = 0x0069e418;
_ZTSN28Btl_AtkBaibaiTaihouChallenge20PcSoloUpdCannonShootE = 0x006a77bd;
_ZTIN28Btl_AtkBaibaiTaihouChallenge20PcTeamUpdCannonShootE = 0x0069e424;
_ZTSN28Btl_AtkBaibaiTaihouChallenge20PcTeamUpdCannonShootE = 0x006a77f4;
_ZTIN28Btl_AtkBaibaiTaihouChallenge20PcTeamUpdJump1stPartE = 0x0069e430;
_ZTSN28Btl_AtkBaibaiTaihouChallenge20PcTeamUpdJump1stPartE = 0x006a782b;
_ZTIN28Btl_AtkBaibaiTaihouChallenge20PcTeamUpdJump2ndPartE = 0x0069e43c;
_ZTSN28Btl_AtkBaibaiTaihouChallenge20PcTeamUpdJump2ndPartE = 0x006a7862;
_ZTIN28Btl_AtkBaibaiTaihouChallenge21PcSoloUpdAtkFailRetryE = 0x0069e448;
_ZTSN28Btl_AtkBaibaiTaihouChallenge21PcSoloUpdAtkFailRetryE = 0x006a7899;
_ZTIN28Btl_AtkBaibaiTaihouChallenge21PcTeamUpdAtkFailRetryE = 0x0069e454;
_ZTSN28Btl_AtkBaibaiTaihouChallenge21PcTeamUpdAtkFailRetryE = 0x006a78d1;
_ZTIN28Btl_AtkBaibaiTaihouChallenge22PcSoloUpdJump2ndFinishE = 0x0069e460;
_ZTSN28Btl_AtkBaibaiTaihouChallenge22PcSoloUpdJump2ndFinishE = 0x006a7909;
_ZTIN28Btl_AtkBaibaiTaihouChallenge23PcSoloUpdJump1stSuccessE = 0x0069e46c;
_ZTSN28Btl_AtkBaibaiTaihouChallenge23PcSoloUpdJump1stSuccessE = 0x006a7942;
_ZTIN28Btl_AtkBaibaiTaihouChallenge23PcSoloUpdJump1stThroughE = 0x0069e478;
_ZTSN28Btl_AtkBaibaiTaihouChallenge23PcSoloUpdJump1stThroughE = 0x006a797c;
_ZTIN28Btl_AtkBaibaiTaihouChallenge23PcSoloUpdJump2ndSuccessE = 0x0069e484;
_ZTSN28Btl_AtkBaibaiTaihouChallenge23PcSoloUpdJump2ndSuccessE = 0x006a79b6;
_ZTIN28Btl_AtkBaibaiTaihouChallenge24PcTeamUpdAtkRetrySeqSkipE = 0x0069e490;
_ZTSN28Btl_AtkBaibaiTaihouChallenge24PcTeamUpdAtkRetrySeqSkipE = 0x006a79f0;
_ZTIN28Btl_AtkBaibaiTaihouChallenge26PcSoloUpdJumpFailBadTimingE = 0x0069e49c;
_ZTSN28Btl_AtkBaibaiTaihouChallenge26PcSoloUpdJumpFailBadTimingE = 0x006a7a2b;
_ZTIN28Btl_AtkBaibaiTaihouChallenge6ChrCmdE = 0x0069e4a8;
_ZTSN28Btl_AtkBaibaiTaihouChallenge6ChrCmdE = 0x006a7a68;
_ZTIN29Btl_AtkAchichiFlowerChallenge10AtkPartIMFE = 0x0069e4c4;
_ZTSN29Btl_AtkAchichiFlowerChallenge10AtkPartIMFE = 0x006a7ae5;
_ZTIN29Btl_AtkAchichiFlowerChallenge11AtkPartMainE = 0x0069e4d0;
_ZTSN29Btl_AtkAchichiFlowerChallenge11AtkPartMainE = 0x006a7b13;
_ZTIN29Btl_AtkAchichiFlowerChallenge12AtkPartFinalE = 0x0069e4dc;
_ZTSN29Btl_AtkAchichiFlowerChallenge12AtkPartFinalE = 0x006a7b42;
_ZTIN29Btl_AtkAchichiFlowerChallenge12AtkPartIntro23UpdaterWaitReadyAtkCompE = 0x0069e4e8;
_ZTSN29Btl_AtkAchichiFlowerChallenge12AtkPartIntro23UpdaterWaitReadyAtkCompE = 0x006a7b72;
_ZTIN29Btl_AtkAchichiFlowerChallenge12AtkPartIntroE = 0x0069e4f4;
_ZTSN29Btl_AtkAchichiFlowerChallenge12AtkPartIntroE = 0x006a7bbb;
_ZTIN29Btl_AtkAchichiFlowerChallenge16SceneUpdAtkEnterE = 0x0069e500;
_ZTSN29Btl_AtkAchichiFlowerChallenge16SceneUpdAtkEnterE = 0x006a7beb;
_ZTIN29Btl_AtkAchichiFlowerChallenge17SceneUpdAtkExtendE = 0x0069e50c;
_ZTSN29Btl_AtkAchichiFlowerChallenge17SceneUpdAtkExtendE = 0x006a7c1f;
_ZTIN29Btl_AtkAchichiFlowerChallenge17SceneUpdAtkFinishE = 0x0069e518;
_ZTSN29Btl_AtkAchichiFlowerChallenge17SceneUpdAtkFinishE = 0x006a7c54;
_ZTIN29Btl_AtkAchichiFlowerChallenge17SceneUpdAtkNormalE = 0x0069e524;
_ZTSN29Btl_AtkAchichiFlowerChallenge17SceneUpdAtkNormalE = 0x006a7c89;
_ZTIN29Btl_AtkAchichiFlowerChallenge18MonSoloUpdFireMoveE = 0x0069e530;
_ZTSN29Btl_AtkAchichiFlowerChallenge18MonSoloUpdFireMoveE = 0x006a7cbe;
_ZTIN29Btl_AtkAchichiFlowerChallenge19MonSoloUpdFireBurstE = 0x0069e53c;
_ZTSN29Btl_AtkAchichiFlowerChallenge19MonSoloUpdFireBurstE = 0x006a7cf4;
_ZTIN29Btl_AtkAchichiFlowerChallenge21PcSoloUpdExtendAppearE = 0x0069e548;
_ZTSN29Btl_AtkAchichiFlowerChallenge21PcSoloUpdExtendAppearE = 0x006a7d2b;
_ZTIN29Btl_AtkAchichiFlowerChallenge21RefCounterSlowAtkModeE = 0x0069e554;
_ZTSN29Btl_AtkAchichiFlowerChallenge21RefCounterSlowAtkModeE = 0x006a7d64;
_ZTIN29Btl_AtkAchichiFlowerChallenge22PcSoloUpdFireballBurstE = 0x0069e560;
_ZTSN29Btl_AtkAchichiFlowerChallenge22PcSoloUpdFireballBurstE = 0x006a7d9d;
_ZTIN29Btl_AtkAchichiFlowerChallenge22PcSoloUpdFireballThrowE = 0x0069e56c;
_ZTSN29Btl_AtkAchichiFlowerChallenge22PcSoloUpdFireballThrowE = 0x006a7dd7;
_ZTIN29Btl_AtkAchichiFlowerChallenge23PcSoloUpdFireballGrowthE = 0x0069e578;
_ZTSN29Btl_AtkAchichiFlowerChallenge23PcSoloUpdFireballGrowthE = 0x006a7e11;
_ZTIN29Btl_AtkAchichiFlowerChallenge24PcSoloUpdChangeToFireCosE = 0x0069e584;
_ZTSN29Btl_AtkAchichiFlowerChallenge24PcSoloUpdChangeToFireCosE = 0x006a7e4c;
_ZTIN29Btl_AtkAchichiFlowerChallenge26PcSoloUpdChangeToNormalCosE = 0x0069e590;
_ZTSN29Btl_AtkAchichiFlowerChallenge26PcSoloUpdChangeToNormalCosE = 0x006a7e88;
_ZTIN29Btl_AtkAchichiFlowerChallenge6ChrCmdE = 0x0069e59c;
_ZTSN29Btl_AtkAchichiFlowerChallenge6ChrCmdE = 0x006a7ec6;
_ZTIN29Btl_AtkSnipePachinkoChallenge11AtkPartMainE = 0x0069e5a8;
_ZTSN29Btl_AtkSnipePachinkoChallenge11AtkPartMainE = 0x006a7eef;
_ZTIN29Btl_AtkSnipePachinkoChallenge12AtkPartFinalE = 0x0069e5b4;
_ZTSN29Btl_AtkSnipePachinkoChallenge12AtkPartFinalE = 0x006a7f1e;
_ZTIN29Btl_AtkSnipePachinkoChallenge12AtkPartIntro23UpdaterWaitReadyAtkCompE = 0x0069e5c0;
_ZTSN29Btl_AtkSnipePachinkoChallenge12AtkPartIntro23UpdaterWaitReadyAtkCompE = 0x006a7f4e;
_ZTIN29Btl_AtkSnipePachinkoChallenge12AtkPartIntroE = 0x0069e5cc;
_ZTSN29Btl_AtkSnipePachinkoChallenge12AtkPartIntroE = 0x006a7f97;
_ZTIN29Btl_AtkSnipePachinkoChallenge12AtkPartTotalE = 0x0069e5d8;
_ZTSN29Btl_AtkSnipePachinkoChallenge12AtkPartTotalE = 0x006a7fc7;
_ZTIN29Btl_AtkSnipePachinkoChallenge18BASceneUpdAtkReadyE = 0x0069e5e4;
_ZTSN29Btl_AtkSnipePachinkoChallenge18BASceneUpdAtkReadyE = 0x006a7ff7;
_ZTIN29Btl_AtkSnipePachinkoChallenge21BASceneUpdAtkChargingE = 0x0069e5f0;
_ZTSN29Btl_AtkSnipePachinkoChallenge21BASceneUpdAtkChargingE = 0x006a802d;
_ZTIN29Btl_AtkSnipePachinkoChallenge22BASceneUpdAtkTargetingE = 0x0069e5fc;
_ZTSN29Btl_AtkSnipePachinkoChallenge22BASceneUpdAtkTargetingE = 0x006a8066;
_ZTIN29Btl_AtkSnipePachinkoChallenge23BASceneUpdAtkClashFloorE = 0x0069e608;
_ZTSN29Btl_AtkSnipePachinkoChallenge23BASceneUpdAtkClashFloorE = 0x006a80a0;
_ZTIN29Btl_AtkSnipePachinkoChallenge23BASceneUpdAtkPostHitMonE = 0x0069e614;
_ZTSN29Btl_AtkSnipePachinkoChallenge23BASceneUpdAtkPostHitMonE = 0x006a80db;
_ZTIN29Btl_AtkSnipePachinkoChallenge23BASceneUpdRetrySequenceE = 0x0069e620;
_ZTSN29Btl_AtkSnipePachinkoChallenge23BASceneUpdRetrySequenceE = 0x006a8116;
_ZTIN29Btl_AtkSnipePachinkoChallenge24BASceneUpdAtkLostStaminaE = 0x0069e62c;
_ZTSN29Btl_AtkSnipePachinkoChallenge24BASceneUpdAtkLostStaminaE = 0x006a8151;
_ZTIN29Btl_AtkSnipePachinkoChallenge25BASceneUpdAtkShootHitStopE = 0x0069e638;
_ZTSN29Btl_AtkSnipePachinkoChallenge25BASceneUpdAtkShootHitStopE = 0x006a818d;
_ZTIN29Btl_AtkSnipePachinkoChallenge25BtlObjUIRenderKeyOverrideE = 0x0069e644;
_ZTSN29Btl_AtkSnipePachinkoChallenge25BtlObjUIRenderKeyOverrideE = 0x006a81ca;
_ZTIN29Btl_AtkSnipePachinkoChallenge26BASceneUpdAtkShootPiercingE = 0x0069e650;
_ZTSN29Btl_AtkSnipePachinkoChallenge26BASceneUpdAtkShootPiercingE = 0x006a8207;
_ZTIN29Btl_AtkSnipePachinkoChallenge34BASceneUpdAtkPachinkoBeltSpringExpE = 0x0069e65c;
_ZTSN29Btl_AtkSnipePachinkoChallenge34BASceneUpdAtkPachinkoBeltSpringExpE = 0x006a8245;
_ZTIN29Btl_AtkSnipePachinkoChallenge6ChrCmdE = 0x0069e668;
_ZTSN29Btl_AtkSnipePachinkoChallenge6ChrCmdE = 0x006a828b;
_ZTIN29Btl_AtkSnipePachinkoChallenge7BASceneE = 0x0069e674;
_ZTSN29Btl_AtkSnipePachinkoChallenge7BASceneE = 0x006a82b4;
_ZTIN29Btl_AtkSnipePachinkoChallenge8BAPcTeamE = 0x0069e680;
_ZTSN29Btl_AtkSnipePachinkoChallenge8BAPcTeamE = 0x006a82de;
_ZTIN29Btl_AtkSnipePachinkoChallenge9BAMonTeamE = 0x0069e694;
_ZTSN29Btl_AtkSnipePachinkoChallenge9BAMonTeamE = 0x006a8335;
_ZTIN2MB10StateIntroE = 0x0069e6a0;
_ZTSN2MB10StateIntroE = 0x006a8361;
_ZTIN2MB13StateFinalizeE = 0x0069e6ac;
_ZTSN2MB13StateFinalizeE = 0x006a8373;
_ZTIN2MB4yaUt10BtlColReadE = 0x0069e6b8;
_ZTSN2MB4yaUt10BtlColReadE = 0x006a8388;
_ZTIN2MB4yaUt10PhysicsObjE = 0x0069e6c4;
_ZTSN2MB4yaUt10PhysicsObjE = 0x006a839f;
_ZTIN2MB4yaUt11OBBColliderE = 0x0069e6d0;
_ZTSN2MB4yaUt11OBBColliderE = 0x006a83b6;
_ZTIN2MB4yaUt11ProcessBaseE = 0x0069e6dc;
_ZTSN2MB4yaUt11ProcessBaseE = 0x006a83ce;
_ZTIN2MB4yaUt12AABBColliderE = 0x0069e6e8;
_ZTSN2MB4yaUt12AABBColliderE = 0x006a83e6;
_ZTIN2MB4yaUt14SphereColliderE = 0x0069e6fc;
_ZTSN2MB4yaUt14SphereColliderE = 0x006a8419;
_ZTIN2MB4yaUt20MiracleAtkIntro_MoveE = 0x0069e708;
_ZTSN2MB4yaUt20MiracleAtkIntro_MoveE = 0x006a8434;
_ZTIN2MB4yaUt26MiracleAtkIntro_HoistLuigiE = 0x0069e714;
_ZTSN2MB4yaUt26MiracleAtkIntro_HoistLuigiE = 0x006a8455;
_ZTIN2MB4yaUt26MiracleAtkIntro_ThrowLuigiE = 0x0069e720;
_ZTSN2MB4yaUt26MiracleAtkIntro_ThrowLuigiE = 0x006a847c;
_ZTIN2MB4yaUt29MiracleAtkIntro_AttachUnitDfxE = 0x0069e72c;
_ZTSN2MB4yaUt29MiracleAtkIntro_AttachUnitDfxE = 0x006a84a3;
_ZTIN2MB4yaUt9IColliderE = 0x0069e748;
_ZTSN2MB4yaUt9IColliderE = 0x006a84f4;
_ZTIN2MB9StateMainE = 0x0069e754;
_ZTSN2MB9StateMainE = 0x006a8509;
_ZTIN2MF10StateIntroE = 0x0069e760;
_ZTSN2MF10StateIntroE = 0x006a8519;
_ZTIN2MF13StateFinalizeE = 0x0069e76c;
_ZTSN2MF13StateFinalizeE = 0x006a852b;
_ZTIN2MF19BtlPcAtkMiracleFireE = 0x0069e778;
_ZTSN2MF19BtlPcAtkMiracleFireE = 0x006a8540;
_ZTIN2MF4yaUt10PhysicsObjE = 0x0069e784;
_ZTSN2MF4yaUt10PhysicsObjE = 0x006a855b;
_ZTIN2MF4yaUt11ProcessBaseE = 0x0069e790;
_ZTSN2MF4yaUt11ProcessBaseE = 0x006a8572;
_ZTIN2MF4yaUt12AABBColliderE = 0x0069e79c;
_ZTSN2MF4yaUt12AABBColliderE = 0x006a858a;
_ZTIN2MF4yaUt14SphereColliderE = 0x0069e7a8;
_ZTSN2MF4yaUt14SphereColliderE = 0x006a85a3;
_ZTIN2MF4yaUt20MiracleAtkIntro_FadeE = 0x0069e7b4;
_ZTSN2MF4yaUt20MiracleAtkIntro_FadeE = 0x006a85be;
_ZTIN2MF4yaUt21IMiracleAtkIntro_FadeE = 0x0069e7c0;
_ZTSN2MF4yaUt21IMiracleAtkIntro_FadeE = 0x006a85df;
_ZTIN2MF4yaUt26MiracleAtkIntro_HoistLuigiE = 0x0069e7cc;
_ZTSN2MF4yaUt26MiracleAtkIntro_HoistLuigiE = 0x006a8601;
_ZTIN2MF4yaUt26MiracleAtkIntro_ThrowLuigiE = 0x0069e7d8;
_ZTSN2MF4yaUt26MiracleAtkIntro_ThrowLuigiE = 0x006a8628;
_ZTIN2MF4yaUt29MiracleAtkIntro_AttachUnitDfxE = 0x0069e7e4;
_ZTSN2MF4yaUt29MiracleAtkIntro_AttachUnitDfxE = 0x006a864f;
_ZTIN2MF4yaUt9IColliderE = 0x0069e800;
_ZTSN2MF4yaUt9IColliderE = 0x006a86a0;
_ZTIN2MF6ObjMonE = 0x0069e80c;
_ZTSN2MF6ObjMonE = 0x006a86b5;
_ZTIN2MF8ResourceE = 0x0069e818;
_ZTSN2MF8ResourceE = 0x006a86c2;
_ZTIN2MF9StateMainE = 0x0069e824;
_ZTSN2MF9StateMainE = 0x006a86d1;
_ZTIN2MH10StateIntroE = 0x0069e830;
_ZTSN2MH10StateIntroE = 0x006a86e1;
_ZTIN2MH11LuigiHammer10StateBoundE = 0x0069e83c;
_ZTSN2MH11LuigiHammer10StateBoundE = 0x006a86f3;
_ZTIN2MH11LuigiHammer10StateSwingE = 0x0069e848;
_ZTSN2MH11LuigiHammer10StateSwingE = 0x006a8712;
_ZTIN2MH11LuigiHammer10StateThrowE = 0x0069e854;
_ZTSN2MH11LuigiHammer10StateThrowE = 0x006a8731;
_ZTIN2MH11LuigiHammer11StateDeleteE = 0x0069e860;
_ZTSN2MH11LuigiHammer11StateDeleteE = 0x006a8750;
_ZTIN2MH11LuigiHammer11StateKuzureE = 0x0069e86c;
_ZTSN2MH11LuigiHammer11StateKuzureE = 0x006a8770;
_ZTIN2MH11LuigiHammer15StateFurikaburiE = 0x0069e878;
_ZTSN2MH11LuigiHammer15StateFurikaburiE = 0x006a8790;
_ZTIN2MH11LuigiHammer15StateMakeHammerE = 0x0069e884;
_ZTSN2MH11LuigiHammer15StateMakeHammerE = 0x006a87b4;
_ZTIN2MH13StateFinalizeE = 0x0069e890;
_ZTSN2MH13StateFinalizeE = 0x006a87d8;
_ZTIN2MH4yaUt10BtlColReadE = 0x0069e89c;
_ZTSN2MH4yaUt10BtlColReadE = 0x006a87ed;
_ZTIN2MH4yaUt10PhysicsObjE = 0x0069e8a8;
_ZTSN2MH4yaUt10PhysicsObjE = 0x006a8804;
_ZTIN2MH4yaUt11ProcessBaseE = 0x0069e8b4;
_ZTSN2MH4yaUt11ProcessBaseE = 0x006a881b;
_ZTIN2MH4yaUt20MiracleAtkIntro_MoveE = 0x0069e8c0;
_ZTSN2MH4yaUt20MiracleAtkIntro_MoveE = 0x006a8833;
_ZTIN2MH4yaUt26MiracleAtkIntro_HoistLuigiE = 0x0069e8cc;
_ZTSN2MH4yaUt26MiracleAtkIntro_HoistLuigiE = 0x006a8854;
_ZTIN2MH4yaUt26MiracleAtkIntro_ThrowLuigiE = 0x0069e8d8;
_ZTSN2MH4yaUt26MiracleAtkIntro_ThrowLuigiE = 0x006a887b;
_ZTIN2MH4yaUt29MiracleAtkIntro_AttachUnitDfxE = 0x0069e8e4;
_ZTSN2MH4yaUt29MiracleAtkIntro_AttachUnitDfxE = 0x006a88a2;
_ZTIN2MH6AtkCmdE = 0x0069e920;
_ZTSN2MH6AtkCmdE = 0x006a8987;
_ZTIN2MH6ObjCam11StateGoHomeE = 0x0069e92c;
_ZTSN2MH6ObjCam11StateGoHomeE = 0x006a8994;
_ZTIN2MH6ObjCam13StateAutoMoveE = 0x0069e938;
_ZTSN2MH6ObjCam13StateAutoMoveE = 0x006a89ae;
_ZTIN2MH6ObjCam13StateCompressE = 0x0069e944;
_ZTSN2MH6ObjCam13StateCompressE = 0x006a89ca;
_ZTIN2MH6ObjCam14StateSwingFallE = 0x0069e950;
_ZTSN2MH6ObjCam14StateSwingFallE = 0x006a89e6;
_ZTIN2MH6ObjCam14StateSwingJumpE = 0x0069e95c;
_ZTSN2MH6ObjCam14StateSwingJumpE = 0x006a8a03;
_ZTIN2MH6ObjCam15StateMakeHammerE = 0x0069e968;
_ZTSN2MH6ObjCam15StateMakeHammerE = 0x006a8a20;
_ZTIN2MH8ObjMario11MarioHammer10StateSwingE = 0x0069e994;
_ZTSN2MH8ObjMario11MarioHammer10StateSwingE = 0x006a8a4b;
_ZTIN2MH8ObjMario11MarioHammer10StateThrowE = 0x0069e9a0;
_ZTSN2MH8ObjMario11MarioHammer10StateThrowE = 0x006a8a73;
_ZTIN2MH8ObjMario11MarioHammer11StateYuragiE = 0x0069e9ac;
_ZTSN2MH8ObjMario11MarioHammer11StateYuragiE = 0x006a8a9b;
_ZTIN2MH8ObjMario11MarioHammer12StateBalanceE = 0x0069e9b8;
_ZTSN2MH8ObjMario11MarioHammer12StateBalanceE = 0x006a8ac4;
_ZTIN2MH8ObjMario11MarioHammer13StateAutoMoveE = 0x0069e9c4;
_ZTSN2MH8ObjMario11MarioHammer13StateAutoMoveE = 0x006a8aee;
_ZTIN2MH8ObjMario11MarioHammer15StateFurikaburiE = 0x0069e9d0;
_ZTSN2MH8ObjMario11MarioHammer15StateFurikaburiE = 0x006a8b19;
_ZTIN2MH8ObjMario11MarioHammer19StateSwingExcellentE = 0x0069e9dc;
_ZTSN2MH8ObjMario11MarioHammer19StateSwingExcellentE = 0x006a8b46;
_ZTIN2MH8ObjMario11MarioHammer8StateHitE = 0x0069e9e8;
_ZTSN2MH8ObjMario11MarioHammer8StateHitE = 0x006a8b77;
_ZTIN2MH8ObjMario11MarioHammer9StateJumpE = 0x0069e9f4;
_ZTSN2MH8ObjMario11MarioHammer9StateJumpE = 0x006a8b9c;
_ZTIN2MH8ObjMario4Move13StateAutoDashE = 0x0069ea00;
_ZTSN2MH8ObjMario4Move13StateAutoDashE = 0x006a8bc2;
_ZTIN2MH8ObjMario4Move15StateMakeHammerE = 0x0069ea0c;
_ZTSN2MH8ObjMario4Move15StateMakeHammerE = 0x006a8be5;
_ZTIN2MH8ResourceE = 0x0069ea18;
_ZTSN2MH8ResourceE = 0x006a8c0a;
_ZTIN2MH9ShockWaveE = 0x0069ea24;
_ZTSN2MH9ShockWaveE = 0x006a8c19;
_ZTIN2MH9StateMainE = 0x0069ea30;
_ZTSN2MH9StateMainE = 0x006a8c29;
_ZTIN2MT4yaUt11ProcessBaseE = 0x0069ea3c;
_ZTSN2MT4yaUt11ProcessBaseE = 0x006a8c39;
_ZTIN2MT4yaUt20MiracleAtkIntro_MoveE = 0x0069ea48;
_ZTSN2MT4yaUt20MiracleAtkIntro_MoveE = 0x006a8c51;
_ZTIN2MT4yaUt26MiracleAtkIntro_HoistLuigiE = 0x0069ea54;
_ZTSN2MT4yaUt26MiracleAtkIntro_HoistLuigiE = 0x006a8c72;
_ZTIN2MT4yaUt26MiracleAtkIntro_ThrowLuigiE = 0x0069ea60;
_ZTSN2MT4yaUt26MiracleAtkIntro_ThrowLuigiE = 0x006a8c99;
_ZTIN2MT4yaUt29MiracleAtkIntro_AttachUnitDfxE = 0x0069ea6c;
_ZTSN2MT4yaUt29MiracleAtkIntro_AttachUnitDfxE = 0x006a8cc0;
_ZTIN2MV22BtlPcAtkMiracleVolcanoE = 0x0069ea80;
_ZTSN2MV22BtlPcAtkMiracleVolcanoE = 0x006a8cfe;
_ZTIN2nn2fs3CTR6MPCore6detail12RomFsArchive4FileE = 0x0069eb1c;
_ZTSN2nn2fs3CTR6MPCore6detail12RomFsArchive4FileE = 0x006a8db9;
_ZTIN2nn2fs3CTR6MPCore6detail12RomFsArchive9DirectoryE = 0x0069eb28;
_ZTSN2nn2fs3CTR6MPCore6detail12RomFsArchive9DirectoryE = 0x006a8de7;
_ZTIN2nn2fs3CTR6MPCore6detail12RomFsArchiveE = 0x0069eb34;
_ZTSN2nn2fs3CTR6MPCore6detail12RomFsArchiveE = 0x006a8e1a;
_ZTIN2nn2fs3CTR6MPCore6detail19ContentRomFsArchiveE = 0x0069eba0;
_ZTSN2nn2fs3CTR6MPCore6detail19ContentRomFsArchiveE = 0x006a8edc;
_ZTIN2nn2fs6detail8FileBaseE = 0x0069ebd4;
_ZTSN2nn2fs6detail8FileBaseE = 0x006a8f6f;
_ZTIN2nn2os10WaitObjectE = 0x0069ec10;
_ZTSN2nn2os10WaitObjectE = 0x006a9001;
_ZTIN2nn2os14InterruptEventE = 0x0069ec34;
_ZTSN2nn2os14InterruptEventE = 0x006a902d;
_ZTIN2nn2os6ThreadE = 0x0069ec48;
_ZTSN2nn2os6ThreadE = 0x006a9061;
_ZTIN2nn2os9EventBaseE = 0x0069ec54;
_ZTSN2nn2os9EventBaseE = 0x006a9071;
_ZTIN2nn3fnd11ExpHeapBaseE = 0x0069ec70;
_ZTSN2nn3fnd11ExpHeapBaseE = 0x006a90bd;
_ZTIN2nn3fnd12UnitHeapBaseE = 0x0069ec7c;
_ZTSN2nn3fnd12UnitHeapBaseE = 0x006a90d4;
_ZTIN2nn3fnd13FrameHeapBaseE = 0x0069ec88;
_ZTSN2nn3fnd13FrameHeapBaseE = 0x006a90ec;
_ZTIN2nn3fnd15ExpHeapTemplateINS_2os10LockPolicy6ObjectINS2_15CriticalSectionEEEE9AllocatorE = 0x0069ec94;
_ZTSN2nn3fnd15ExpHeapTemplateINS_2os10LockPolicy6ObjectINS2_15CriticalSectionEEEE9AllocatorE = 0x006a9105;
_ZTIN2nn3hid3CTR7HidBaseE = 0x0069ed48;
_ZTSN2nn3hid3CTR7HidBaseE = 0x006a92c2;
_ZTIN2nn3srv28EventNotificationHandlerBaseINS_2os10LightEventEEE = 0x0069ed84;
_ZTSN2nn3srv28EventNotificationHandlerBaseINS_2os10LightEventEEE = 0x006a930f;
_ZTIN2nn4font11ResFontBaseE = 0x0069ed98;
_ZTSN2nn4font11ResFontBaseE = 0x006a9369;
_ZTIN2nn4font7ResFontE = 0x0069edac;
_ZTSN2nn4font7ResFontE = 0x006a9391;
_ZTIN2nn6crypto13Sha256ContextE = 0x0069ede8;
_ZTSN2nn6crypto13Sha256ContextE = 0x006a955f;
_ZTIN2nn6crypto21ShaBlock512BitContextE = 0x0069edfc;
_ZTSN2nn6crypto21ShaBlock512BitContextE = 0x006a9599;
_ZTIN2nw3lyt18AnimTransformBasicE = 0x0069ee20;
_ZTSN2nw3lyt18AnimTransformBasicE = 0x006a9607;
_ZTIN2nw3lyt19ArcResourceAccessorE = 0x0069ee2c;
_ZTSN2nw3lyt19ArcResourceAccessorE = 0x006a9625;
_ZTIN2nw3lyt4PaneE = 0x0069ee38;
_ZTSN2nw3lyt4PaneE = 0x006a9644;
_ZTIN2nw3lyt6DrawerE = 0x0069ee4c;
_ZTSN2nw3lyt6DrawerE = 0x006a9663;
_ZTIN2nw3lyt6WindowE = 0x0069ee60;
_ZTSN2nw3lyt6WindowE = 0x006a9685;
_ZTIN2nw3lyt7PictureE = 0x0069ee6c;
_ZTSN2nw3lyt7PictureE = 0x006a9696;
_ZTIN2nw3lyt7TextBoxE = 0x0069ee78;
_ZTSN2nw3lyt7TextBoxE = 0x006a96a8;
_ZTIN2nw3lyt8BoundingE = 0x0069ee84;
_ZTSN2nw3lyt8BoundingE = 0x006a96ba;
_ZTIN2nw4font11ResFontBaseE = 0x0069eeb0;
_ZTSN2nw4font11ResFontBaseE = 0x006a9726;
_ZTIN2nw4font7ResFontE = 0x0069eed4;
_ZTSN2nw4font7ResFontE = 0x006a978e;
_ZTIN3MSB10MessageObjE = 0x0069eef0;
_ZTSN3MSB10MessageObjE = 0x006a97e3;
_ZTIN3MSB10StateIntroE = 0x0069eefc;
_ZTSN3MSB10StateIntroE = 0x006a97f6;
_ZTIN3MSB11CamFollow_0E = 0x0069ef08;
_ZTSN3MSB11CamFollow_0E = 0x006a9809;
_ZTIN3MSB11CamFollow_1E = 0x0069ef14;
_ZTSN3MSB11CamFollow_1E = 0x006a981d;
_ZTIN3MSB13StateFinalizeE = 0x0069ef60;
_ZTSN3MSB13StateFinalizeE = 0x006a985b;
_ZTIN3MSB16SnowballRendererE = 0x0069ef6c;
_ZTSN3MSB16SnowballRendererE = 0x006a9871;
_ZTIN3MSB18ObjUsefullColliderE = 0x0069ef80;
_ZTSN3MSB18ObjUsefullColliderE = 0x006a98a4;
_ZTIN3MSB23BtlPcAtkMiracleSnowballE = 0x0069ef8c;
_ZTSN3MSB23BtlPcAtkMiracleSnowballE = 0x006a98bf;
_ZTIN3MSB4yaUt10BtlColReadE = 0x0069ef98;
_ZTSN3MSB4yaUt10BtlColReadE = 0x006a98df;
_ZTIN3MSB4yaUt10PhysicsObjE = 0x0069efa4;
_ZTSN3MSB4yaUt10PhysicsObjE = 0x006a98f7;
_ZTIN3MSB4yaUt11ProcessBaseE = 0x0069efb0;
_ZTSN3MSB4yaUt11ProcessBaseE = 0x006a990f;
_ZTIN3MSB4yaUt12AABBColliderE = 0x0069efbc;
_ZTSN3MSB4yaUt12AABBColliderE = 0x006a9928;
_ZTIN3MSB4yaUt14SphereColliderE = 0x0069efd0;
_ZTSN3MSB4yaUt14SphereColliderE = 0x006a995d;
_ZTIN3MSB4yaUt20MiracleAtkIntro_FadeE = 0x0069efdc;
_ZTSN3MSB4yaUt20MiracleAtkIntro_FadeE = 0x006a9979;
_ZTIN3MSB4yaUt21IMiracleAtkIntro_FadeE = 0x0069efe8;
_ZTSN3MSB4yaUt21IMiracleAtkIntro_FadeE = 0x006a999b;
_ZTIN3MSB4yaUt25MiracleAtkIntro_MarioJumpE = 0x0069eff4;
_ZTSN3MSB4yaUt25MiracleAtkIntro_MarioJumpE = 0x006a99be;
_ZTIN3MSB4yaUt26MiracleAtkIntro_HoistLuigiE = 0x0069f000;
_ZTSN3MSB4yaUt26MiracleAtkIntro_HoistLuigiE = 0x006a99e5;
_ZTIN3MSB4yaUt26MiracleAtkIntro_ThrowLuigiE = 0x0069f00c;
_ZTSN3MSB4yaUt26MiracleAtkIntro_ThrowLuigiE = 0x006a9a0d;
_ZTIN3MSB4yaUt29MiracleAtkIntro_AttachUnitDfxE = 0x0069f018;
_ZTSN3MSB4yaUt29MiracleAtkIntro_AttachUnitDfxE = 0x006a9a35;
_ZTIN3MSB4yaUt9IColliderE = 0x0069f034;
_ZTSN3MSB4yaUt9IColliderE = 0x006a9a89;
_ZTIN3MSB6ObjCamE = 0x0069f040;
_ZTSN3MSB6ObjCamE = 0x006a9a9f;
_ZTIN3MSB8ObjMario10SECallBackE = 0x0069f094;
_ZTSN3MSB8ObjMario10SECallBackE = 0x006a9acb;
_ZTIN3MSB8ObjMarioE = 0x0069f0a0;
_ZTSN3MSB8ObjMarioE = 0x006a9ae7;
_ZTIN3MSB8ResourceE = 0x0069f0ac;
_ZTSN3MSB8ResourceE = 0x006a9af7;
_ZTIN3MSB9StateMainE = 0x0069f0b8;
_ZTSN3MSB9StateMainE = 0x006a9b07;
_ZTIN4Adsl8Internal12SharedCountPI10BtlObjMoveEE = 0x0069f0c4;
_ZTSN4Adsl8Internal12SharedCountPI10BtlObjMoveEE = 0x006a9b18;
_ZTIN4Adsl8Internal12SharedCountPIN17Btl_AtkStarRocket9BAMonSoloEEE = 0x0069f0d0;
_ZTSN4Adsl8Internal12SharedCountPIN17Btl_AtkStarRocket9BAMonSoloEEE = 0x006a9b45;
_ZTIN4Adsl8Internal12SharedCountPIN18Btl_AtkFuechauBall9BAMonSoloEEE = 0x0069f0dc;
_ZTSN4Adsl8Internal12SharedCountPIN18Btl_AtkFuechauBall9BAMonSoloEEE = 0x006a9b85;
_ZTIN4Adsl8Internal12SharedCountPIN20Btl_AtkAchichiFlower10BAFireballEEE = 0x0069f0e8;
_ZTSN4Adsl8Internal12SharedCountPIN20Btl_AtkAchichiFlower10BAFireballEEE = 0x006a9bc6;
_ZTIN4Adsl8Internal12SharedCountPIN20Btl_AtkAchichiFlower9BAMonSoloEEE = 0x0069f0f4;
_ZTSN4Adsl8Internal12SharedCountPIN20Btl_AtkAchichiFlower9BAMonSoloEEE = 0x006a9c0b;
_ZTIN4Adsl8Internal12SharedCountPIN27Btl_AtkFuechauBallChallenge9BAMonSoloEEE = 0x0069f100;
_ZTSN4Adsl8Internal12SharedCountPIN27Btl_AtkFuechauBallChallenge9BAMonSoloEEE = 0x006a9c4e;
_ZTIN4Adsl8Internal12SharedCountPIN29Btl_AtkAchichiFlowerChallenge10BAFireballEEE = 0x0069f10c;
_ZTSN4Adsl8Internal12SharedCountPIN29Btl_AtkAchichiFlowerChallenge10BAFireballEEE = 0x006a9c98;
_ZTIN4Adsl8Internal12SharedCountPIN29Btl_AtkAchichiFlowerChallenge9BAMonSoloEEE = 0x0069f118;
_ZTSN4Adsl8Internal12SharedCountPIN29Btl_AtkAchichiFlowerChallenge9BAMonSoloEEE = 0x006a9ce6;
_ZTIN4Adsl8Internal12SharedCountPIN29Btl_AtkSnipePachinkoChallenge9BAMonSoloEEE = 0x0069f124;
_ZTSN4Adsl8Internal12SharedCountPIN29Btl_AtkSnipePachinkoChallenge9BAMonSoloEEE = 0x006a9d32;
_ZTIN4Adsl8Internal12SharedCountPIN8BETPcWin12UIParamDispUEEE = 0x0069f130;
_ZTSN4Adsl8Internal12SharedCountPIN8BETPcWin12UIParamDispUEEE = 0x006a9d7e;
_ZTIN4Adsl8Internal12SharedCountPIN8BETPcWin14UIObjectsDispLEEE = 0x0069f13c;
_ZTSN4Adsl8Internal12SharedCountPIN8BETPcWin14UIObjectsDispLEEE = 0x006a9db8;
_ZTIN4Adsl8Internal12SharedCountPIN8BETPcWin16UIBtlResultDispUEEE = 0x0069f148;
_ZTSN4Adsl8Internal12SharedCountPIN8BETPcWin16UIBtlResultDispUEEE = 0x006a9df4;
_ZTIN4Adsl8Internal12SharedCountPIN8BETPcWin20UISharedObjectsTupleEEE = 0x0069f154;
_ZTSN4Adsl8Internal12SharedCountPIN8BETPcWin20UISharedObjectsTupleEEE = 0x006a9e32;
_ZTIN4Adsl8Internal12SharedCountPIN8BETPcWin5ObjCAEEE = 0x0069f160;
_ZTSN4Adsl8Internal12SharedCountPIN8BETPcWin5ObjCAEEE = 0x006a9e74;
_ZTIN4Adsl8Internal13SharedCountPDI10BtlDfxUnitN9hoBtlUtil20hoDfxUnitKillFunctorEEE = 0x0069f16c;
_ZTSN4Adsl8Internal13SharedCountPDI10BtlDfxUnitN9hoBtlUtil20hoDfxUnitKillFunctorEEE = 0x006a9ea6;
_ZTIN4Bomb3HitE = 0x0069f180;
_ZTSN4Bomb3HitE = 0x006a9f18;
_ZTIN4Bomb4DropE = 0x0069f18c;
_ZTSN4Bomb4DropE = 0x006a9f24;
_ZTIN4Bomb4FallE = 0x0069f198;
_ZTSN4Bomb4FallE = 0x006a9f31;
_ZTIN4Bomb7DisableE = 0x0069f1ac;
_ZTSN4Bomb7DisableE = 0x006a9f4d;
_ZTIN4Bomb8Expl_HitE = 0x0069f1b8;
_ZTSN4Bomb8Expl_HitE = 0x006a9f5d;
_ZTIN4Bomb9Expl_MissE = 0x0069f1c4;
_ZTSN4Bomb9Expl_MissE = 0x006a9f6e;
_ZTIN4UITM11MainProcessE = 0x0069f1d0;
_ZTSN4UITM11MainProcessE = 0x006a9f80;
_ZTIN4UITM12AttackMLTaskE = 0x0069f1dc;
_ZTSN4UITM12AttackMLTaskE = 0x006a9f95;
_ZTIN4UITM14AttackBallTaskE = 0x0069f1e8;
_ZTSN4UITM14AttackBallTaskE = 0x006a9fab;
_ZTIN4UITM21MainProcess_ResurrectE = 0x0069f1f4;
_ZTSN4UITM21MainProcess_ResurrectE = 0x006a9fc3;
_ZTIN4UITM23MainProcess_ChokkaiBallE = 0x0069f200;
_ZTSN4UITM23MainProcess_ChokkaiBallE = 0x006a9fe2;
_ZTIN4UITM25MainProcess_BombBoxCommon16Process_ThrowAnmE = 0x0069f20c;
_ZTSN4UITM25MainProcess_BombBoxCommon16Process_ThrowAnmE = 0x006aa003;
_ZTIN4UITM25MainProcess_BombBoxCommon17Process_SecretBoxE = 0x0069f218;
_ZTSN4UITM25MainProcess_BombBoxCommon17Process_SecretBoxE = 0x006aa038;
_ZTIN4UITM25MainProcess_BombBoxCommon19Process_BikkuriBombE = 0x0069f224;
_ZTSN4UITM25MainProcess_BombBoxCommon19Process_BikkuriBombE = 0x006aa06e;
_ZTIN4UITM25MainProcess_BombBoxCommonE = 0x0069f230;
_ZTSN4UITM25MainProcess_BombBoxCommonE = 0x006aa0a6;
_ZTIN4UITM25MainProcess_ResurrectMameE = 0x0069f23c;
_ZTSN4UITM25MainProcess_ResurrectMameE = 0x006aa0c9;
_ZTIN4UITM4yaUt11ProcessBaseE = 0x0069f248;
_ZTSN4UITM4yaUt11ProcessBaseE = 0x006aa0ec;
_ZTIN4UITM5EatMLE = 0x0069f25c;
_ZTSN4UITM5EatMLE = 0x006aa11c;
_ZTIN4UITM8MoveItemE = 0x0069f268;
_ZTSN4UITM8MoveItemE = 0x006aa12a;
_ZTIN4UITM8ResourceE = 0x0069f274;
_ZTSN4UITM8ResourceE = 0x006aa13b;
_ZTIN4__rw15__rw_facet_baseE = 0x0069f280;
_ZTSN4__rw15__rw_facet_baseE = 0x006aa14c;
_ZTIN4__rw17__rw_collate_implIcEE = 0x0069f29c;
_ZTSN4__rw17__rw_collate_implIcEE = 0x006aa19f;
_ZTIN4__rw18__rw_numpunct_implIcEE = 0x0069f2b8;
_ZTSN4__rw18__rw_numpunct_implIcEE = 0x006aa1f6;
_ZTIN4adsl3gfx10AnimObjectE = 0x0069f2ec;
_ZTSN4adsl3gfx10AnimObjectE = 0x006aa25a;
_ZTIN4adsl3gfx11AnimBindingE = 0x0069f2f8;
_ZTSN4adsl3gfx11AnimBindingE = 0x006aa272;
_ZTIN4adsl3gfx11SceneObjectE = 0x0069f304;
_ZTSN4adsl3gfx11SceneObjectE = 0x006aa28b;
_ZTIN4adsl3gfx11VertexLightE = 0x0069f310;
_ZTSN4adsl3gfx11VertexLightE = 0x006aa2a4;
_ZTIN4adsl3gfx12AmbientLightE = 0x0069f31c;
_ZTSN4adsl3gfx12AmbientLightE = 0x006aa2bd;
_ZTIN4adsl3gfx12MeshRendererE = 0x0069f328;
_ZTSN4adsl3gfx12MeshRendererE = 0x006aa2d7;
_ZTIN4adsl3gfx12SceneContextE = 0x0069f334;
_ZTSN4adsl3gfx12SceneContextE = 0x006aa2f1;
_ZTIN4adsl3gfx12SceneUpdaterE = 0x0069f340;
_ZTSN4adsl3gfx12SceneUpdaterE = 0x006aa30b;
_ZTIN4adsl3gfx13AnimEvaluatorE = 0x0069f34c;
_ZTSN4adsl3gfx13AnimEvaluatorE = 0x006aa325;
_ZTIN4adsl3gfx13FragmentLightE = 0x0069f358;
_ZTSN4adsl3gfx13FragmentLightE = 0x006aa340;
_ZTIN4adsl3gfx13IRenderTargetE = 0x0069f364;
_ZTSN4adsl3gfx13IRenderTargetE = 0x006aa35b;
_ZTIN4adsl3gfx13ISceneUpdaterE = 0x0069f370;
_ZTSN4adsl3gfx13ISceneUpdaterE = 0x006aa376;
_ZTIN4adsl3gfx13ISceneVisitorE = 0x0069f37c;
_ZTSN4adsl3gfx13ISceneVisitorE = 0x006aa391;
_ZTIN4adsl3gfx13RenderContextE = 0x0069f388;
_ZTSN4adsl3gfx13RenderContextE = 0x006aa3ac;
_ZTIN4adsl3gfx13ShaderProgramE = 0x0069f394;
_ZTSN4adsl3gfx13ShaderProgramE = 0x006aa3c7;
_ZTIN4adsl3gfx13SkeletalModelE = 0x0069f3a0;
_ZTSN4adsl3gfx13SkeletalModelE = 0x006aa3e2;
_ZTIN4adsl3gfx13TransformNodeE = 0x0069f3ac;
_ZTSN4adsl3gfx13TransformNodeE = 0x006aa3fd;
_ZTIN4adsl3gfx14SceneTraverserE = 0x0069f3b8;
_ZTSN4adsl3gfx14SceneTraverserE = 0x006aa418;
_ZTIN4adsl3gfx15OffScreenBufferE = 0x0069f3c4;
_ZTSN4adsl3gfx15OffScreenBufferE = 0x006aa434;
_ZTIN4adsl3gfx16SceneInitializerE = 0x0069f3d0;
_ZTSN4adsl3gfx16SceneInitializerE = 0x006aa451;
_ZTIN4adsl3gfx16StandardSkeletonE = 0x0069f3dc;
_ZTSN4adsl3gfx16StandardSkeletonE = 0x006aa46f;
_ZTIN4adsl3gfx17BaseAnimEvaluatorE = 0x0069f3e8;
_ZTSN4adsl3gfx17BaseAnimEvaluatorE = 0x006aa48d;
_ZTIN4adsl3gfx17CameraViewUpdaterE = 0x0069f3f4;
_ZTSN4adsl3gfx17CameraViewUpdaterE = 0x006aa4ac;
_ZTIN4adsl3gfx17MaterialActivatorE = 0x0069f400;
_ZTSN4adsl3gfx17MaterialActivatorE = 0x006aa4cb;
_ZTIN4adsl3gfx17RotateViewUpdaterE = 0x0069f40c;
_ZTSN4adsl3gfx17RotateViewUpdaterE = 0x006aa4ea;
_ZTIN4adsl3gfx18IMaterialActivatorE = 0x0069f418;
_ZTSN4adsl3gfx18IMaterialActivatorE = 0x006aa509;
_ZTIN4adsl3gfx20AimTargetViewUpdaterE = 0x0069f424;
_ZTSN4adsl3gfx20AimTargetViewUpdaterE = 0x006aa529;
_ZTIN4adsl3gfx20AnimBlendOpTransformE = 0x0069f430;
_ZTSN4adsl3gfx20AnimBlendOpTransformE = 0x006aa54b;
_ZTIN4adsl3gfx20IMaterialIdGeneratorE = 0x0069f43c;
_ZTSN4adsl3gfx20IMaterialIdGeneratorE = 0x006aa56d;
_ZTIN4adsl3gfx20TransformAnimBlendOpE = 0x0069f448;
_ZTSN4adsl3gfx20TransformAnimBlendOpE = 0x006aa58f;
_ZTIN4adsl3gfx22OrthoProjectionUpdaterE = 0x0069f454;
_ZTSN4adsl3gfx22OrthoProjectionUpdaterE = 0x006aa5b1;
_ZTIN4adsl3gfx22TransformAnimEvaluatorE = 0x0069f460;
_ZTSN4adsl3gfx22TransformAnimEvaluatorE = 0x006aa5d5;
_ZTIN4adsl3gfx23CameraProjectionUpdaterE = 0x0069f46c;
_ZTSN4adsl3gfx23CameraProjectionUpdaterE = 0x006aa5f9;
_ZTIN4adsl3gfx23LookAtTargetViewUpdaterE = 0x0069f478;
_ZTSN4adsl3gfx23LookAtTargetViewUpdaterE = 0x006aa61e;
_ZTIN4adsl3gfx23SceneEnvironmentSettingE = 0x0069f484;
_ZTSN4adsl3gfx23SceneEnvironmentSettingE = 0x006aa643;
_ZTIN4adsl3gfx23SimpleMaterialActivatorE = 0x0069f490;
_ZTSN4adsl3gfx23SimpleMaterialActivatorE = 0x006aa668;
_ZTIN4adsl3gfx24FrustumProjectionUpdaterE = 0x0069f49c;
_ZTSN4adsl3gfx24FrustumProjectionUpdaterE = 0x006aa68d;
_ZTIN4adsl3gfx24TransformAnimBlendOpQuatE = 0x0069f4a8;
_ZTSN4adsl3gfx24TransformAnimBlendOpQuatE = 0x006aa6b3;
_ZTIN4adsl3gfx26SortingMaterialIdGeneratorE = 0x0069f4b4;
_ZTSN4adsl3gfx26SortingMaterialIdGeneratorE = 0x006aa6d9;
_ZTIN4adsl3gfx28PerspectiveProjectionUpdaterE = 0x0069f4c0;
_ZTSN4adsl3gfx28PerspectiveProjectionUpdaterE = 0x006aa701;
_ZTIN4adsl3gfx28TransformAnimBlendOpAccScaleE = 0x0069f4cc;
_ZTSN4adsl3gfx28TransformAnimBlendOpAccScaleE = 0x006aa72b;
_ZTIN4adsl3gfx28TransformAnimBlendOpStandardE = 0x0069f4d8;
_ZTSN4adsl3gfx28TransformAnimBlendOpStandardE = 0x006aa755;
_ZTIN4adsl3gfx32TransformAnimBlendOpAccScaleQuatE = 0x0069f4e4;
_ZTSN4adsl3gfx32TransformAnimBlendOpAccScaleQuatE = 0x006aa77f;
_ZTIN4adsl3gfx3FogE = 0x0069f4f0;
_ZTSN4adsl3gfx3FogE = 0x006aa7ad;
_ZTIN4adsl3gfx5LightE = 0x0069f4fc;
_ZTSN4adsl3gfx5LightE = 0x006aa7bd;
_ZTIN4adsl3gfx5ModelE = 0x0069f508;
_ZTSN4adsl3gfx5ModelE = 0x006aa7cf;
_ZTIN4adsl3gfx6CameraE = 0x0069f514;
_ZTSN4adsl3gfx6CameraE = 0x006aa7e1;
_ZTIN4adsl3gfx8LightSetE = 0x0069f520;
_ZTSN4adsl3gfx8LightSetE = 0x006aa7f4;
_ZTIN4adsl3gfx8MaterialE = 0x0069f52c;
_ZTSN4adsl3gfx8MaterialE = 0x006aa809;
_ZTIN4adsl3gfx8SkeletonE = 0x0069f538;
_ZTSN4adsl3gfx8SkeletonE = 0x006aa81e;
_ZTIN4adsl3gfx9AnimGroupE = 0x0069f544;
_ZTSN4adsl3gfx9AnimGroupE = 0x006aa833;
_ZTIN4adsl3gfx9SceneNodeE = 0x0069f558;
_ZTSN4adsl3gfx9SceneNodeE = 0x006aa85f;
_ZTIN4adsl4anim14AnimBlendOpIntE = 0x0069f574;
_ZTSN4adsl4anim14AnimBlendOpIntE = 0x006aa8a8;
_ZTIN4adsl4anim15AnimBlendOpBoolE = 0x0069f580;
_ZTSN4adsl4anim15AnimBlendOpBoolE = 0x006aa8c5;
_ZTIN4adsl4anim16AnimBlendOpFloatE = 0x0069f58c;
_ZTSN4adsl4anim16AnimBlendOpFloatE = 0x006aa8e3;
_ZTIN4adsl4anim18AnimBlendOpTextureE = 0x0069f598;
_ZTSN4adsl4anim18AnimBlendOpTextureE = 0x006aa902;
_ZTIN4adsl4anim18AnimBlendOpVector2E = 0x0069f5a4;
_ZTSN4adsl4anim18AnimBlendOpVector2E = 0x006aa923;
_ZTIN4adsl4anim18AnimBlendOpVector3E = 0x0069f5b0;
_ZTSN4adsl4anim18AnimBlendOpVector3E = 0x006aa944;
_ZTIN4adsl4anim20AnimBlendOpRgbaColorE = 0x0069f5c4;
_ZTSN4adsl4anim20AnimBlendOpRgbaColorE = 0x006aa987;
_ZTIN4yaUt15MsgReciverProxyE = 0x0069f5e0;
_ZTSN4yaUt15MsgReciverProxyE = 0x006aa9d9;
_ZTIN4yaUt19IBtlAtkStateTmplMsgI11BtlAtkMJCamEE = 0x0069f654;
_ZTSN4yaUt19IBtlAtkStateTmplMsgI11BtlAtkMJCamEE = 0x006aac60;
_ZTIN4yaUt19IBtlAtkStateTmplMsgIN6BTLFLC16Task_GameManagerEEE = 0x0069f660;
_ZTSN4yaUt19IBtlAtkStateTmplMsgIN6BTLFLC16Task_GameManagerEEE = 0x006aac8c;
_ZTIN5BTLMJ17StompTaskCallbackE = 0x0069f684;
_ZTSN5BTLMJ17StompTaskCallbackE = 0x006aad25;
_ZTIN5BTLMJ4yaUt11ProcessBaseE = 0x0069f690;
_ZTSN5BTLMJ4yaUt11ProcessBaseE = 0x006aad41;
_ZTIN5BTLMJ4yaUt12AABBColliderE = 0x0069f69c;
_ZTSN5BTLMJ4yaUt12AABBColliderE = 0x006aad5c;
_ZTIN5BTLMJ4yaUt20MiracleAtkIntro_FadeE = 0x0069f6a8;
_ZTSN5BTLMJ4yaUt20MiracleAtkIntro_FadeE = 0x006aad78;
_ZTIN5BTLMJ4yaUt21IMiracleAtkIntro_FadeE = 0x0069f6b4;
_ZTSN5BTLMJ4yaUt21IMiracleAtkIntro_FadeE = 0x006aad9c;
_ZTIN5BTLMJ4yaUt25MiracleAtkIntro_MarioJumpE = 0x0069f6c0;
_ZTSN5BTLMJ4yaUt25MiracleAtkIntro_MarioJumpE = 0x006aadc1;
_ZTIN5BTLMJ4yaUt26MiracleAtkIntro_HoistLuigiE = 0x0069f6cc;
_ZTSN5BTLMJ4yaUt26MiracleAtkIntro_HoistLuigiE = 0x006aadea;
_ZTIN5BTLMJ4yaUt26MiracleAtkIntro_ThrowLuigiE = 0x0069f6d8;
_ZTSN5BTLMJ4yaUt26MiracleAtkIntro_ThrowLuigiE = 0x006aae14;
_ZTIN5BTLMJ4yaUt29MiracleAtkIntro_AttachUnitDfxE = 0x0069f6e4;
_ZTSN5BTLMJ4yaUt29MiracleAtkIntro_AttachUnitDfxE = 0x006aae3e;
_ZTIN5BTLMJ4yaUt9IColliderE = 0x0069f6f8;
_ZTSN5BTLMJ4yaUt9IColliderE = 0x006aae82;
_ZTIN5Badge10ObjBtnBaseE = 0x0069f704;
_ZTSN5Badge10ObjBtnBaseE = 0x006aae9a;
_ZTIN5Badge10ObjConfirmE = 0x0069f710;
_ZTSN5Badge10ObjConfirmE = 0x006aaeaf;
_ZTIN5Badge10ObjECSumPtE = 0x0069f71c;
_ZTSN5Badge10ObjECSumPtE = 0x006aaec4;
_ZTIN5Badge10ObjMsgBaseE = 0x0069f728;
_ZTSN5Badge10ObjMsgBaseE = 0x006aaed9;
_ZTIN5Badge11ObjActMeterE = 0x0069f73c;
_ZTSN5Badge11ObjActMeterE = 0x006aaf04;
_ZTIN5Badge11ObjECPlusPtE = 0x0069f748;
_ZTSN5Badge11ObjECPlusPtE = 0x006aaf1a;
_ZTIN5Badge11ObjPrimBaseE = 0x0069f754;
_ZTSN5Badge11ObjPrimBaseE = 0x006aaf30;
_ZTIN5Badge11ObjSelBadgeE = 0x0069f760;
_ZTSN5Badge11ObjSelBadgeE = 0x006aaf46;
_ZTIN5Badge12ObjAtkExpImgE = 0x0069f76c;
_ZTSN5Badge12ObjAtkExpImgE = 0x006aaf5c;
_ZTIN5Badge12ObjAtkExpMsgE = 0x0069f778;
_ZTSN5Badge12ObjAtkExpMsgE = 0x006aaf73;
_ZTIN5Badge12ObjStockBaseE = 0x0069f784;
_ZTSN5Badge12ObjStockBaseE = 0x006aaf8a;
_ZTIN5Badge13ObjBtnOverlayE = 0x0069f790;
_ZTSN5Badge13ObjBtnOverlayE = 0x006aafa1;
_ZTIN5Badge13ObjNumPnlBaseE = 0x0069f79c;
_ZTSN5Badge13ObjNumPnlBaseE = 0x006aafb9;
_ZTIN5Badge13ObjStockPanelE = 0x0069f7a8;
_ZTSN5Badge13ObjStockPanelE = 0x006aafd1;
_ZTIN5Badge14ObjBadgeEffMsgE = 0x0069f7b4;
_ZTSN5Badge14ObjBadgeEffMsgE = 0x006aafe9;
_ZTIN5Badge16ObjBadgeEffPopupE = 0x0069f7c0;
_ZTSN5Badge16ObjBadgeEffPopupE = 0x006ab002;
_ZTIN5Badge17ObjECDetailWindowE = 0x0069f7cc;
_ZTSN5Badge17ObjECDetailWindowE = 0x006ab01d;
_ZTIN5Badge5ObjBgE = 0x0069f7e8;
_ZTSN5Badge5ObjBgE = 0x006ab079;
_ZTIN5Badge7ObjBaseE = 0x0069f7f4;
_ZTSN5Badge7ObjBaseE = 0x006ab088;
_ZTIN5Badge7ObjListE = 0x0069f800;
_ZTSN5Badge7ObjListE = 0x006ab099;
_ZTIN5Badge8ObjStockE = 0x0069f80c;
_ZTSN5Badge8ObjStockE = 0x006ab0aa;
_ZTIN5Badge9DfxHandleE = 0x0069f818;
_ZTSN5Badge9DfxHandleE = 0x006ab0bc;
_ZTIN5Badge9ObjECList7ListWndE = 0x0069f824;
_ZTSN5Badge9ObjECList7ListWndE = 0x006ab0cf;
_ZTIN5Badge9ObjECListE = 0x0069f830;
_ZTSN5Badge9ObjECListE = 0x006ab0ea;
_ZTIN5BtlFS8FileUnitE = 0x0069f83c;
_ZTSN5BtlFS8FileUnitE = 0x006ab0fd;
_ZTIN5BtlFS9FReadUnitE = 0x0069f848;
_ZTSN5BtlFS9FReadUnitE = 0x006ab10f;
_ZTIN5BtlPc15SpEffActHpLimitE = 0x0069f854;
_ZTSN5BtlPc15SpEffActHpLimitE = 0x006ab122;
_ZTIN5BtlPc17SpEffActLuckyTimeE = 0x0069f860;
_ZTSN5BtlPc17SpEffActLuckyTimeE = 0x006ab13c;
_ZTIN5BtlPc19SpEffActGhostCookieE = 0x0069f86c;
_ZTSN5BtlPc19SpEffActGhostCookieE = 0x006ab158;
_ZTIN5BtlPc19SpEffActLuckyChanceE = 0x0069f878;
_ZTSN5BtlPc19SpEffActLuckyChanceE = 0x006ab176;
_ZTIN6BTLFLC11FlcResourceE = 0x0069f884;
_ZTSN6BTLFLC11FlcResourceE = 0x006ab194;
_ZTIN6BTLFLC11SyncObjTaskE = 0x0069f890;
_ZTSN6BTLFLC11SyncObjTaskE = 0x006ab1ab;
_ZTIN6BTLFLC11SyncPosTaskE = 0x0069f89c;
_ZTSN6BTLFLC11SyncPosTaskE = 0x006ab1c2;
_ZTIN6BTLFLC11Task_Target11DmgStompEndE = 0x0069f8a8;
_ZTSN6BTLFLC11Task_Target11DmgStompEndE = 0x006ab1d9;
_ZTIN6BTLFLC14Task_ShockWaveE = 0x0069f8d4;
_ZTSN6BTLFLC14Task_ShockWaveE = 0x006ab214;
_ZTIN6BTLFLC17GameManager_IntroE = 0x0069f900;
_ZTSN6BTLFLC17GameManager_IntroE = 0x006ab24a;
_ZTIN6BTLFLC19MLControllTask_SpinE = 0x0069f90c;
_ZTSN6BTLFLC19MLControllTask_SpinE = 0x006ab267;
_ZTIN6BTLFLC20GameManager_Game_LV1E = 0x0069f918;
_ZTSN6BTLFLC20GameManager_Game_LV1E = 0x006ab286;
_ZTIN6BTLFLC20GameManager_Game_LV2E = 0x0069f924;
_ZTSN6BTLFLC20GameManager_Game_LV2E = 0x006ab2a6;
_ZTIN6BTLFLC21MLControllTask_GoHomeE = 0x0069f930;
_ZTSN6BTLFLC21MLControllTask_GoHomeE = 0x006ab2c6;
_ZTIN6BTLFLC22MLControllTask_FuttobiE = 0x0069f95c;
_ZTSN6BTLFLC22MLControllTask_FuttobiE = 0x006ab308;
_ZTIN6BTLFLC22MLControllTask_GameLV1E = 0x0069f968;
_ZTSN6BTLFLC22MLControllTask_GameLV1E = 0x006ab32a;
_ZTIN6BTLFLC22MLControllTask_GameLV2E = 0x0069f974;
_ZTSN6BTLFLC22MLControllTask_GameLV2E = 0x006ab34c;
_ZTIN6BTLFLC23FlcControllTask_DestroyE = 0x0069f980;
_ZTSN6BTLFLC23FlcControllTask_DestroyE = 0x006ab36e;
_ZTIN6BTLFLC23FlcControllTask_GameLV1E = 0x0069f98c;
_ZTSN6BTLFLC23FlcControllTask_GameLV1E = 0x006ab391;
_ZTIN6BTLFLC23FlcControllTask_GameLV2E = 0x0069f998;
_ZTSN6BTLFLC23FlcControllTask_GameLV2E = 0x006ab3b4;
_ZTIN6BTLFLC23MLControllTask_FukkatsuE = 0x0069f9a4;
_ZTSN6BTLFLC23MLControllTask_FukkatsuE = 0x006ab3d7;
_ZTIN6BTLFLC25FlcControllTask_SpinAfterE = 0x0069f9b0;
_ZTSN6BTLFLC25FlcControllTask_SpinAfterE = 0x006ab3fa;
_ZTIN6BTLFLC26FlcControllTask_AutoAttackE = 0x0069f9bc;
_ZTSN6BTLFLC26FlcControllTask_AutoAttackE = 0x006ab41f;
_ZTIN6BTLFLC26MLControllTask_StompEffectE = 0x0069f9c8;
_ZTSN6BTLFLC26MLControllTask_StompEffectE = 0x006ab445;
_ZTIN6BTLFLC4yaUt11ProcessBaseE = 0x0069f9d4;
_ZTSN6BTLFLC4yaUt11ProcessBaseE = 0x006ab46b;
_ZTIN6BTLFLC8FadeTaskE = 0x0069fa08;
_ZTSN6BTLFLC8FadeTaskE = 0x006ab4b1;
_ZTIN6BTLFLC8WaitTaskE = 0x0069fa54;
_ZTSN6BTLFLC8WaitTaskE = 0x006ab4ea;
_ZTIN6BtlEnc17TaskBattleEncountE = 0x0069fa60;
_ZTSN6BtlEnc17TaskBattleEncountE = 0x006ab4fd;
_ZTIN6BtlMon16SpEffActTimeStopE = 0x0069fa6c;
_ZTSN6BtlMon16SpEffActTimeStopE = 0x006ab51a;
_ZTIN6hoUtil15hoShapeRendererE = 0x0069fa88;
_ZTSN6hoUtil15hoShapeRendererE = 0x006ab568;
_ZTIN7AkmAtk413CmdStateIntroE = 0x0069faa4;
_ZTSN7AkmAtk413CmdStateIntroE = 0x006ab5bf;
_ZTIN7AkmAtk413IntroInternal8ResourceE = 0x0069fab0;
_ZTSN7AkmAtk413IntroInternal8ResourceE = 0x006ab5d9;
_ZTIN7AkmAtk414CmdStateEscape12StateHitHoleE = 0x0069fabc;
_ZTSN7AkmAtk414CmdStateEscape12StateHitHoleE = 0x006ab5fc;
_ZTIN7AkmAtk414CmdStateEscape13StateGameOverE = 0x0069fac8;
_ZTSN7AkmAtk414CmdStateEscape13StateGameOverE = 0x006ab625;
_ZTIN7AkmAtk414CmdStateEscape9StateMoveE = 0x0069fad4;
_ZTSN7AkmAtk414CmdStateEscape9StateMoveE = 0x006ab64f;
_ZTIN7AkmAtk414CmdStateEscapeE = 0x0069fae0;
_ZTSN7AkmAtk414CmdStateEscapeE = 0x006ab674;
_ZTIN7AkmAtk414EscapeInternal8MarioObj11StateEscapeE = 0x0069faec;
_ZTSN7AkmAtk414EscapeInternal8MarioObj11StateEscapeE = 0x006ab68f;
_ZTIN7AkmAtk414EscapeInternal8MarioObj12StateHitHoleE = 0x0069faf8;
_ZTSN7AkmAtk414EscapeInternal8MarioObj12StateHitHoleE = 0x006ab6c0;
_ZTIN7AkmAtk414EscapeInternal8MarioObj14StateHitBulletE = 0x0069fb04;
_ZTSN7AkmAtk414EscapeInternal8MarioObj14StateHitBulletE = 0x006ab6f2;
_ZTIN7AkmAtk414EscapeInternal9AkkumuObj9StateIdleE = 0x0069fb10;
_ZTSN7AkmAtk414EscapeInternal9AkkumuObj9StateIdleE = 0x006ab726;
_ZTIN7AkmAtk414EscapeInternal9AkkumuObj9StateShotE = 0x0069fb1c;
_ZTSN7AkmAtk414EscapeInternal9AkkumuObj9StateShotE = 0x006ab755;
_ZTIN7AkmAtk415AkmAtk4Internal7AkmFallE = 0x0069fb28;
_ZTSN7AkmAtk415AkmAtk4Internal7AkmFallE = 0x006ab784;
_ZTIN7AkmAtk415CmdStateExitEndE = 0x0069fb34;
_ZTSN7AkmAtk415CmdStateExitEndE = 0x006ab7a8;
_ZTIN7AkmAtk415CmdStateLoopEndE = 0x0069fb40;
_ZTSN7AkmAtk415CmdStateLoopEndE = 0x006ab7c4;
_ZTIN7AkmAtk416CmdStateMinigame9StateGameE = 0x0069fb4c;
_ZTSN7AkmAtk416CmdStateMinigame9StateGameE = 0x006ab7e0;
_ZTIN7AkmAtk416CmdStateMinigameE = 0x0069fb58;
_ZTSN7AkmAtk416CmdStateMinigameE = 0x006ab807;
_ZTIN7AkmAtk419CmdStateGameOverEndE = 0x0069fb64;
_ZTSN7AkmAtk419CmdStateGameOverEndE = 0x006ab824;
_ZTIN7AkmAtk44yaUt11ProcessBaseE = 0x0069fb70;
_ZTSN7AkmAtk44yaUt11ProcessBaseE = 0x006ab844;
_ZTIN7AkmAtk46AtkCmdE = 0x0069fbac;
_ZTSN7AkmAtk46AtkCmdE = 0x006ab962;
_ZTIN7AkmAtk47HoleObjE = 0x0069fbb8;
_ZTSN7AkmAtk47HoleObjE = 0x006ab974;
_ZTIN7BtlMain11VSyncThreadE = 0x0069fbcc;
_ZTSN7BtlMain11VSyncThreadE = 0x006ab99b;
_ZTIN7BtlMain12BadgeDfxWrapE = 0x0069fbd8;
_ZTSN7BtlMain12BadgeDfxWrapE = 0x006ab9b3;
_ZTIN7BtlMain13BtlMapDfxWrapE = 0x0069fbe4;
_ZTSN7BtlMain13BtlMapDfxWrapE = 0x006ab9cc;
_ZTIN7FieldPC13FieldPCColChrE = 0x0069fbf0;
_ZTSN7FieldPC13FieldPCColChrE = 0x006ab9e6;
_ZTIN8BETPcWin10ObjectBaseE = 0x0069fbfc;
_ZTSN8BETPcWin10ObjectBaseE = 0x006aba00;
_ZTIN8BETPcWin10UIObjLevelE = 0x0069fc08;
_ZTSN8BETPcWin10UIObjLevelE = 0x006aba18;
_ZTIN8BETPcWin12ObjMsgDrawerE = 0x0069fc14;
_ZTSN8BETPcWin12ObjMsgDrawerE = 0x006aba30;
_ZTIN8BETPcWin12ObjMsgSimpleE = 0x0069fc20;
_ZTSN8BETPcWin12ObjMsgSimpleE = 0x006aba4a;
_ZTIN8BETPcWin12UIParamDispUE = 0x0069fc2c;
_ZTSN8BETPcWin12UIParamDispUE = 0x006aba64;
_ZTIN8BETPcWin13MsgWriterBaseE = 0x0069fc38;
_ZTSN8BETPcWin13MsgWriterBaseE = 0x006aba7e;
_ZTIN8BETPcWin13ObjSlotDigitsE = 0x0069fc44;
_ZTSN8BETPcWin13ObjSlotDigitsE = 0x006aba99;
_ZTIN8BETPcWin14SceneUpdL2LvUpE = 0x0069fc50;
_ZTSN8BETPcWin14SceneUpdL2LvUpE = 0x006abab4;
_ZTIN8BETPcWin14UIObjectsDispLE = 0x0069fc5c;
_ZTSN8BETPcWin14UIObjectsDispLE = 0x006abad0;
_ZTIN8BETPcWin15UIRankBonusListE = 0x0069fc68;
_ZTSN8BETPcWin15UIRankBonusListE = 0x006abaec;
_ZTIN8BETPcWin16MsgWriterPtrWrapE = 0x0069fc74;
_ZTSN8BETPcWin16MsgWriterPtrWrapE = 0x006abb09;
_ZTIN8BETPcWin16SceneUpdL2RankUpE = 0x0069fc80;
_ZTSN8BETPcWin16SceneUpdL2RankUpE = 0x006abb27;
_ZTIN8BETPcWin16UIBtlResultDispUE = 0x0069fc8c;
_ZTSN8BETPcWin16UIBtlResultDispUE = 0x006abb45;
_ZTIN8BETPcWin16UIObjectListBaseE = 0x0069fc98;
_ZTSN8BETPcWin16UIObjectListBaseE = 0x006abb63;
_ZTIN8BETPcWin17ObjBonusParamSlotE = 0x0069fca4;
_ZTSN8BETPcWin17ObjBonusParamSlotE = 0x006abb81;
_ZTIN8BETPcWin17SceneUpdL2ParamUpE = 0x0069fcb0;
_ZTSN8BETPcWin17SceneUpdL2ParamUpE = 0x006abba0;
_ZTIN8BETPcWin18SceneUpdBtlEndExitE = 0x0069fcbc;
_ZTSN8BETPcWin18SceneUpdBtlEndExitE = 0x006abbbf;
_ZTIN8BETPcWin19SceneUpdL3RankBonusE = 0x0069fcc8;
_ZTSN8BETPcWin19SceneUpdL3RankBonusE = 0x006abbdf;
_ZTIN8BETPcWin19UIObjectsPerDisplayE = 0x0069fcd4;
_ZTSN8BETPcWin19UIObjectsPerDisplayE = 0x006abc00;
_ZTIN8BETPcWin20SceneUpdBtlEndResultE = 0x0069fce0;
_ZTSN8BETPcWin20SceneUpdBtlEndResultE = 0x006abc21;
_ZTIN8BETPcWin20SceneUpdL3ParamBonusE = 0x0069fcec;
_ZTSN8BETPcWin20SceneUpdL3ParamBonusE = 0x006abc43;
_ZTIN8BETPcWin20SceneUpdL3ParamUpEndE = 0x0069fcf8;
_ZTSN8BETPcWin20SceneUpdL3ParamUpEndE = 0x006abc65;
_ZTIN8BETPcWin20SceneUpdL3RankUpExitE = 0x0069fd04;
_ZTSN8BETPcWin20SceneUpdL3RankUpExitE = 0x006abc87;
_ZTIN8BETPcWin20UISharedObjectsTupleE = 0x0069fd10;
_ZTSN8BETPcWin20UISharedObjectsTupleE = 0x006abca9;
_ZTIN8BETPcWin21ObjPrimRendererStableE = 0x0069fd1c;
_ZTSN8BETPcWin21ObjPrimRendererStableE = 0x006abccb;
_ZTIN8BETPcWin21ObjectListBObjAdapterE = 0x0069fd28;
_ZTSN8BETPcWin21ObjectListBObjAdapterE = 0x006abcee;
_ZTIN8BETPcWin21SceneUpdL2ReLvUpEnterE = 0x0069fd34;
_ZTSN8BETPcWin21SceneUpdL2ReLvUpEnterE = 0x006abd11;
_ZTIN8BETPcWin21SceneUpdL3ParamUpViewE = 0x0069fd40;
_ZTSN8BETPcWin21SceneUpdL3ParamUpViewE = 0x006abd34;
_ZTIN8BETPcWin21SceneUpdL3RankUpEnterE = 0x0069fd4c;
_ZTSN8BETPcWin21SceneUpdL3RankUpEnterE = 0x006abd57;
_ZTIN8BETPcWin22SceneUpdL4ParamViewAddE = 0x0069fd58;
_ZTSN8BETPcWin22SceneUpdL4ParamViewAddE = 0x006abd7a;
_ZTIN8BETPcWin22SceneUpdPcGrowthRepeatE = 0x0069fd64;
_ZTSN8BETPcWin22SceneUpdPcGrowthRepeatE = 0x006abd9e;
_ZTIN8BETPcWin23SceneUpdL2PcGrowthEnterE = 0x0069fd70;
_ZTSN8BETPcWin23SceneUpdL2PcGrowthEnterE = 0x006abdc2;
_ZTIN8BETPcWin27SceneUpdL2TutorialBtlResultE = 0x0069fd7c;
_ZTSN8BETPcWin27SceneUpdL2TutorialBtlResultE = 0x006abde7;
_ZTIN8BETPcWin27SceneUpdL4ParamViewCountingE = 0x0069fd88;
_ZTSN8BETPcWin27SceneUpdL4ParamViewCountingE = 0x006abe10;
_ZTIN8BETPcWin29SceneUpdL2PcGrowthEndChangePcE = 0x0069fd94;
_ZTSN8BETPcWin29SceneUpdL2PcGrowthEndChangePcE = 0x006abe39;
_ZTIN8BETPcWin30SceneUpdL4ParamViewScreenEnterE = 0x0069fda0;
_ZTSN8BETPcWin30SceneUpdL4ParamViewScreenEnterE = 0x006abe64;
_ZTIN8BETPcWin31SceneUpdBtlResultEndPrePcGrowthE = 0x0069fdac;
_ZTSN8BETPcWin31SceneUpdBtlResultEndPrePcGrowthE = 0x006abe90;
_ZTIN8BETPcWin5ObjCAE = 0x0069fdb8;
_ZTSN8BETPcWin5ObjCAE = 0x006abebd;
_ZTIN8BETPcWin6ObjMdlE = 0x0069fdcc;
_ZTSN8BETPcWin6ObjMdlE = 0x006abee1;
_ZTIN8BtlAtkMD10StateIntroE = 0x0069fdd8;
_ZTSN8BtlAtkMD10StateIntroE = 0x006abef4;
_ZTIN8BtlAtkMD11StateGoHomeE = 0x0069fde4;
_ZTSN8BtlAtkMD11StateGoHomeE = 0x006abf0c;
_ZTIN8BtlAtkMD13CharStateKickE = 0x0069fe10;
_ZTSN8BtlAtkMD13CharStateKickE = 0x006abf3f;
_ZTIN8BtlAtkMD14BtlMDAnimStateE = 0x0069fe1c;
_ZTSN8BtlAtkMD14BtlMDAnimStateE = 0x006abf5a;
_ZTIN8BtlAtkMD15CharStateYorokeE = 0x0069fe48;
_ZTSN8BtlAtkMD15CharStateYorokeE = 0x006abf92;
_ZTIN8BtlAtkMD16CharStateFuttobiE = 0x0069fe54;
_ZTSN8BtlAtkMD16CharStateFuttobiE = 0x006abfaf;
_ZTIN8BtlAtkMD16CharStateShootExE = 0x0069fe60;
_ZTSN8BtlAtkMD16CharStateShootExE = 0x006abfcd;
_ZTIN8BtlAtkMD16CharStateSuccessE = 0x0069fe6c;
_ZTSN8BtlAtkMD16CharStateSuccessE = 0x006abfeb;
_ZTIN8BtlAtkMD16CharStateWaitingE = 0x0069fe78;
_ZTSN8BtlAtkMD16CharStateWaitingE = 0x006ac009;
_ZTIN8BtlAtkMD17CharStateAccessorE = 0x0069fe84;
_ZTSN8BtlAtkMD17CharStateAccessorE = 0x006ac027;
_ZTIN8BtlAtkMD18CharStateKickReadyE = 0x0069fe90;
_ZTSN8BtlAtkMD18CharStateKickReadyE = 0x006ac046;
_ZTIN8BtlAtkMD26CharStatePartnerNGReactionE = 0x0069fe9c;
_ZTSN8BtlAtkMD26CharStatePartnerNGReactionE = 0x006ac066;
_ZTIN9BtlMdlAlc5NwAlcE = 0x0069fed0;
_ZTSN9BtlMdlAlc5NwAlcE = 0x006ac10c;
_ZTIN9hoBtlUtil10hoBtlTimerIfE4ImplE = 0x0069fedc;
_ZTSN9hoBtlUtil10hoBtlTimerIfE4ImplE = 0x006ac11f;
_ZTIN9hoBtlUtil11BtlMeterObjE = 0x0069fee8;
_ZTSN9hoBtlUtil11BtlMeterObjE = 0x006ac140;
_ZTIN9hoBtlUtil14BtlOtehonUIObjE = 0x0069ff04;
_ZTSN9hoBtlUtil14BtlOtehonUIObjE = 0x006ac190;
_ZTIN9hoBtlUtil14BtlPriorityObjE = 0x0069ff10;
_ZTSN9hoBtlUtil14BtlPriorityObjE = 0x006ac1ad;
_ZTIN9hoBtlUtil15BtlLifeCountObjE = 0x0069ff1c;
_ZTSN9hoBtlUtil15BtlLifeCountObjE = 0x006ac1ca;
_ZTIN9hoBtlUtil15BtlObjMesSimpleE = 0x0069ff28;
_ZTSN9hoBtlUtil15BtlObjMesSimpleE = 0x006ac1e8;
_ZTIN9hoBtlUtil15BtlSlotTimerObjE = 0x0069ff34;
_ZTSN9hoBtlUtil15BtlSlotTimerObjE = 0x006ac206;
_ZTIN9hoBtlUtil16BtlScoreCountObjE = 0x0069ff50;
_ZTSN9hoBtlUtil16BtlScoreCountObjE = 0x006ac274;
_ZTIN9hoBtlUtil16BtlSlotDigitsObjE = 0x0069ff5c;
_ZTSN9hoBtlUtil16BtlSlotDigitsObjE = 0x006ac293;
_ZTIN9hoBtlUtil16hoBtlObjHijackerE = 0x0069ff68;
_ZTSN9hoBtlUtil16hoBtlObjHijackerE = 0x006ac2b2;
_ZTIN9hoBtlUtil16hoBtlTaskWeakPtr15BtlTaskCallbackE = 0x0069ff74;
_ZTSN9hoBtlUtil16hoBtlTaskWeakPtr15BtlTaskCallbackE = 0x006ac2d1;
_ZTIN9hoBtlUtil17hoLazyKillUpdaterE = 0x0069ff80;
_ZTSN9hoBtlUtil17hoLazyKillUpdaterE = 0x006ac301;
_ZTIN9hoBtlUtil18BtlStereoSwitchObjE = 0x0069ff8c;
_ZTSN9hoBtlUtil18BtlStereoSwitchObjE = 0x006ac321;
_ZTIN9hoBtlUtil18hoBtlObjUIGuideBtnE = 0x0069ff98;
_ZTSN9hoBtlUtil18hoBtlObjUIGuideBtnE = 0x006ac342;
_ZTIN9hoBtlUtil19BtlMinigameDispLObjE = 0x0069ffa4;
_ZTSN9hoBtlUtil19BtlMinigameDispLObjE = 0x006ac363;
_ZTIN9hoBtlUtil19BtlMinigameStartObjE = 0x0069ffb0;
_ZTSN9hoBtlUtil19BtlMinigameStartObjE = 0x006ac385;
_ZTIN9hoBtlUtil19hoParallelUpdaterFSIN4Adsl9LinkedPtrINS_9hoUpdaterENS1_16PtrDeleteFunctorIS3_EEEELj16EEE = 0x0069ffbc;
_ZTSN9hoBtlUtil19hoParallelUpdaterFSIN4Adsl9LinkedPtrINS_9hoUpdaterENS1_16PtrDeleteFunctorIS3_EEEELj16EEE = 0x006ac3a7;
_ZTIN9hoBtlUtil19hoParallelUpdaterFSIN4Adsl9LinkedPtrINS_9hoUpdaterENS1_16PtrDeleteFunctorIS3_EEEELj4EEE = 0x0069ffc8;
_ZTSN9hoBtlUtil19hoParallelUpdaterFSIN4Adsl9LinkedPtrINS_9hoUpdaterENS1_16PtrDeleteFunctorIS3_EEEELj4EEE = 0x006ac40d;
_ZTIN9hoBtlUtil19hoParallelUpdaterFSIPNS_16BtlScoreCountObj17UpdaterScorePopupELj32EEE = 0x0069ffd4;
_ZTSN9hoBtlUtil19hoParallelUpdaterFSIPNS_16BtlScoreCountObj17UpdaterScorePopupELj32EEE = 0x006ac472;
_ZTIN9hoBtlUtil19hoParallelUpdaterFSIPNS_26BtlSlotTimerObjForMinigame17UpdaterTimerPopupELj32EEE = 0x0069ffe0;
_ZTSN9hoBtlUtil19hoParallelUpdaterFSIPNS_26BtlSlotTimerObjForMinigame17UpdaterTimerPopupELj32EEE = 0x006ac4c5;
_ZTIN9hoBtlUtil19hoParallelUpdaterFSIPNS_27UpdaterAtkCommon_PcSoloMoveELj2EEE = 0x0069ffec;
_ZTSN9hoBtlUtil19hoParallelUpdaterFSIPNS_27UpdaterAtkCommon_PcSoloMoveELj2EEE = 0x006ac522;
_ZTIN9hoBtlUtil19hoParallelUpdaterFSIPNS_9hoUpdaterELj16EEE = 0x0069fff8;
_ZTSN9hoBtlUtil19hoParallelUpdaterFSIPNS_9hoUpdaterELj16EEE = 0x006ac56c;
_ZTIN9hoBtlUtil19hoParallelUpdaterFSIPNS_9hoUpdaterELj2EEE = 0x006a0004;
_ZTSN9hoBtlUtil19hoParallelUpdaterFSIPNS_9hoUpdaterELj2EEE = 0x006ac5a4;
_ZTIN9hoBtlUtil19hoSequenceUpdaterFSIN4Adsl9LinkedPtrINS_9hoUpdaterENS1_16PtrDeleteFunctorIS3_EEEELj16EEE = 0x006a0010;
_ZTSN9hoBtlUtil19hoSequenceUpdaterFSIN4Adsl9LinkedPtrINS_9hoUpdaterENS1_16PtrDeleteFunctorIS3_EEEELj16EEE = 0x006ac5db;
_ZTIN9hoBtlUtil19hoSequenceUpdaterFSIN4Adsl9LinkedPtrINS_9hoUpdaterENS1_16PtrDeleteFunctorIS3_EEEELj4EEE = 0x006a001c;
_ZTSN9hoBtlUtil19hoSequenceUpdaterFSIN4Adsl9LinkedPtrINS_9hoUpdaterENS1_16PtrDeleteFunctorIS3_EEEELj4EEE = 0x006ac641;
_ZTIN9hoBtlUtil19hoSequenceUpdaterFSIN4Adsl9LinkedPtrINS_9hoUpdaterENS1_16PtrDeleteFunctorIS3_EEEELj8EEE = 0x006a0028;
_ZTSN9hoBtlUtil19hoSequenceUpdaterFSIN4Adsl9LinkedPtrINS_9hoUpdaterENS1_16PtrDeleteFunctorIS3_EEEELj8EEE = 0x006ac6a6;
_ZTIN9hoBtlUtil19hoSequenceUpdaterFSIPN18Btl_AtkRocketBoard8BAPcTeam17UpdaterAtkMainSubELj4EEE = 0x006a0034;
_ZTSN9hoBtlUtil19hoSequenceUpdaterFSIPN18Btl_AtkRocketBoard8BAPcTeam17UpdaterAtkMainSubELj4EEE = 0x006ac70b;
_ZTIN9hoBtlUtil19hoSequenceUpdaterFSIPNS_9hoUpdaterELj16EEE = 0x006a0040;
_ZTSN9hoBtlUtil19hoSequenceUpdaterFSIPNS_9hoUpdaterELj16EEE = 0x006ac766;
_ZTIN9hoBtlUtil20BtlMinigameFinishObjE = 0x006a004c;
_ZTSN9hoBtlUtil20BtlMinigameFinishObjE = 0x006ac79e;
_ZTIN9hoBtlUtil22hoBtlObjTutorialUIBtnAE = 0x006a0058;
_ZTSN9hoBtlUtil22hoBtlObjTutorialUIBtnAE = 0x006ac7c1;
_ZTIN9hoBtlUtil22hoBtlObjTutorialUIBtnBE = 0x006a0064;
_ZTSN9hoBtlUtil22hoBtlObjTutorialUIBtnBE = 0x006ac7e6;
_ZTIN9hoBtlUtil22hoBtlObjTutorialUISPadE = 0x006a0070;
_ZTSN9hoBtlUtil22hoBtlObjTutorialUISPadE = 0x006ac80b;
_ZTIN9hoBtlUtil22hoBtlRefCntSlowAtkMode12BtlObjSlowFxE = 0x006a007c;
_ZTSN9hoBtlUtil22hoBtlRefCntSlowAtkMode12BtlObjSlowFxE = 0x006ac830;
_ZTIN9hoBtlUtil22hoBtlRefCntSlowAtkModeE = 0x006a0088;
_ZTSN9hoBtlUtil22hoBtlRefCntSlowAtkModeE = 0x006ac863;
_ZTIN9hoBtlUtil22hoShapeRendererAdapter4ImplE = 0x006a0094;
_ZTSN9hoBtlUtil22hoShapeRendererAdapter4ImplE = 0x006ac888;
_ZTIN9hoBtlUtil24UpdaterAtkCommon_CamMoveE = 0x006a00a0;
_ZTSN9hoBtlUtil24UpdaterAtkCommon_CamMoveE = 0x006ac8b2;
_ZTIN9hoBtlUtil25UpdaterAtkCommon_WaitTimeE = 0x006a00ac;
_ZTSN9hoBtlUtil25UpdaterAtkCommon_WaitTimeE = 0x006ac8d9;
_ZTIN9hoBtlUtil25hoBtlObjTutorialUIBtnBaseE = 0x006a00b8;
_ZTSN9hoBtlUtil25hoBtlObjTutorialUIBtnBaseE = 0x006ac901;
_ZTIN9hoBtlUtil26BtlSlotTimerObjForMinigameE = 0x006a00cc;
_ZTSN9hoBtlUtil26BtlSlotTimerObjForMinigameE = 0x006ac965;
_ZTIN9hoBtlUtil26UpdaterAtkCommon_PcCamMoveE = 0x006a00d8;
_ZTSN9hoBtlUtil26UpdaterAtkCommon_PcCamMoveE = 0x006ac98e;
_ZTIN9hoBtlUtil27UpdaterAtkCommon_PcPairMoveE = 0x006a00e4;
_ZTSN9hoBtlUtil27UpdaterAtkCommon_PcPairMoveE = 0x006ac9b7;
_ZTIN9hoBtlUtil27UpdaterAtkCommon_PcSoloMoveE = 0x006a00f0;
_ZTSN9hoBtlUtil27UpdaterAtkCommon_PcSoloMoveE = 0x006ac9e1;
_ZTIN9hoBtlUtil27UpdaterAtkCommon_ScreenFadeE = 0x006a00fc;
_ZTSN9hoBtlUtil27UpdaterAtkCommon_ScreenFadeE = 0x006aca0b;
_ZTIN9hoBtlUtil29UpdaterAtkCommon_ObjPosSetterILj8EEE = 0x006a0108;
_ZTSN9hoBtlUtil29UpdaterAtkCommon_ObjPosSetterILj8EEE = 0x006aca35;
_ZTIN9hoBtlUtil29UpdaterAtkCommon_PcAppearItemE = 0x006a0114;
_ZTSN9hoBtlUtil29UpdaterAtkCommon_PcAppearItemE = 0x006aca67;
_ZTIN9hoBtlUtil30UpdaterAtkCommon_MiniGameStartE = 0x006a0120;
_ZTSN9hoBtlUtil30UpdaterAtkCommon_MiniGameStartE = 0x006aca93;
_ZTIN9hoBtlUtil31UpdaterAtkCommon_WaitTrgBootBtnE = 0x006a012c;
_ZTSN9hoBtlUtil31UpdaterAtkCommon_WaitTrgBootBtnE = 0x006acac0;
_ZTIN9hoBtlUtil32UpdaterAtkCommon_PcCamMoveAtkEndE = 0x006a0138;
_ZTSN9hoBtlUtil32UpdaterAtkCommon_PcCamMoveAtkEndE = 0x006acaee;
_ZTIN9hoBtlUtil35UpdaterAtkCommon_MiniGameTimerPopupE = 0x006a0144;
_ZTSN9hoBtlUtil35UpdaterAtkCommon_MiniGameTimerPopupE = 0x006acb1d;
_ZTINSt6locale5facetE = 0x006a0158;
_ZTSNSt6locale5facetE = 0x006acb66;
_ZTISt12ctype_bynameIcE = 0x006a0174;
_ZTSSt12ctype_bynameIcE = 0x006acb98;
_ZTISt14__rw_exception = 0x006a0188;
_ZTSSt14__rw_exception = 0x006acbbe;
_ZTISt14codecvt_bynameIwcSt11__mbstate_tE = 0x006a0194;
_ZTSSt14codecvt_bynameIwcSt11__mbstate_tE = 0x006acbd1;
_ZTISt14collate_bynameIcE = 0x006a01a0;
_ZTSSt14collate_bynameIcE = 0x006acbf7;
_ZTISt18__rw_messages_base = 0x006a01ac;
_ZTSSt18__rw_messages_base = 0x006acc0d;

/* __cxxabiv1::__vmi_class_type_info */

_ZTI10FieldChrCA = 0x0069b890;
_ZTS10FieldChrCA = 0x006a03c9;
_ZTI11FieldChrMdl = 0x0069bb40;
_ZTS11FieldChrMdl = 0x006a07a0;
_ZTI12FieldBoardCA = 0x0069bd0c;
_ZTS12FieldBoardCA = 0x006a09d7;
_ZTI12FieldChrPrim = 0x0069bd34;
_ZTS12FieldChrPrim = 0x006a09f5;
_ZTI12FieldEnemyCA = 0x0069bd60;
_ZTS12FieldEnemyCA = 0x006a0a13;
_ZTI12MBObjBallMan = 0x0069bdd4;
_ZTS12MBObjBallMan = 0x006a0a9a;
_ZTI13FieldBoardMdl = 0x0069bf40;
_ZTS13FieldBoardMdl = 0x006a0c6f;
_ZTI14FieldChrPrimCA = 0x0069c184;
_ZTS14FieldChrPrimCA = 0x006a11fc;
_ZTI16FieldTaskListMan = 0x0069c334;
_ZTS16FieldTaskListMan = 0x006a148d;
_ZTI16RealRingKuguriUI = 0x0069c364;
_ZTS16RealRingKuguriUI = 0x006a14c6;
_ZTI17BtlObjLuigiBoxMan = 0x0069c400;
_ZTS17BtlObjLuigiBoxMan = 0x006a15b1;
_ZTI18RealMuyuPanelEvent = 0x0069c5a8;
_ZTS18RealMuyuPanelEvent = 0x006a1b77;
_ZTI18RealPropellerEvent = 0x0069c5c8;
_ZTS18RealPropellerEvent = 0x006a1b8c;
_ZTI19RealRingKuguriEvent = 0x0069c65c;
_ZTS19RealRingKuguriEvent = 0x006a1c7c;
_ZTI19RealShiohigariEvent = 0x0069c67c;
_ZTS19RealShiohigariEvent = 0x006a1c92;
_ZTI24RealCharinkoGondolaEvent = 0x0069c7fc;
_ZTS24RealCharinkoGondolaEvent = 0x006a1f8d;
_ZTI5BtlAI = 0x0069c94c;
_ZTS5BtlAI = 0x006a2281;
_ZTI7FieldCA = 0x0069ca98;
_ZTS7FieldCA = 0x006a2382;
_ZTI8MBObjMon = 0x0069cbf0;
_ZTS8MBObjMon = 0x006a248d;
_ZTI8RealMuyu = 0x0069cc1c;
_ZTS8RealMuyu = 0x006a24a1;
_ZTI8RealRing = 0x0069cc3c;
_ZTS8RealRing = 0x006a24ab;
_ZTI9CtrThread = 0x0069ccdc;
_ZTS9CtrThread = 0x006a2535;
_ZTI9RealCrack = 0x0069cd78;
_ZTS9RealCrack = 0x006a25cf;
_ZTIN2MH6ObjMonE = 0x0069e974;
_ZTSN2MH6ObjMonE = 0x006a8a3e;
_ZTIN2nn2fs10FileStreamE = 0x0069ea8c;
_ZTSN2nn2fs10FileStreamE = 0x006a8d1c;
_ZTIN2nn2fs12IInputStreamE = 0x0069eab4;
_ZTSN2nn2fs12IInputStreamE = 0x006a8d31;
_ZTIN2nn2fs13IOutputStreamE = 0x0069eacc;
_ZTSN2nn2fs13IOutputStreamE = 0x006a8d48;
_ZTIN2nn2fs15FileInputStreamE = 0x0069eaec;
_ZTSN2nn2fs15FileInputStreamE = 0x006a8d78;
_ZTIN2nn2fs3CTR6MPCore6detail17FileServerArchive4FileE = 0x0069eb40;
_ZTSN2nn2fs3CTR6MPCore6detail17FileServerArchive4FileE = 0x006a8e43;
_ZTIN2nn2fs3CTR6MPCore6detail17FileServerArchive9DirectoryE = 0x0069eb60;
_ZTSN2nn2fs3CTR6MPCore6detail17FileServerArchive9DirectoryE = 0x006a8e76;
_ZTIN2nn2fs3CTR6MPCore6detail17FileServerArchiveE = 0x0069eb80;
_ZTSN2nn2fs3CTR6MPCore6detail17FileServerArchiveE = 0x006a8eae;
_ZTIN2nn2fs6detail12FileBaseImplE = 0x0069ebbc;
_ZTSN2nn2fs6detail12FileBaseImplE = 0x006a8f51;
_ZTIN2nn2fs7IStreamE = 0x0069ebe0;
_ZTSN2nn2fs7IStreamE = 0x006a8f88;
_ZTIN2nn2os12HandleObjectE = 0x0069ec1c;
_ZTSN2nn2os12HandleObjectE = 0x006a9016;
_ZTIN2nn3fnd15ExpHeapTemplateINS_2os10LockPolicy6ObjectINS2_15CriticalSectionEEEEE = 0x0069eca0;
_ZTSN2nn3fnd15ExpHeapTemplateINS_2os10LockPolicy6ObjectINS2_15CriticalSectionEEEEE = 0x006a915e;
_ZTIN2nn3fnd16UnitHeapTemplateINS_2os10LockPolicy6ObjectINS2_15CriticalSectionEEEEE = 0x0069ecc0;
_ZTSN2nn3fnd16UnitHeapTemplateINS_2os10LockPolicy6ObjectINS2_15CriticalSectionEEEEE = 0x006a91ad;
_ZTIN2nn3fnd17FrameHeapTemplateINS_2os10LockPolicy6NoLockEEE = 0x0069ece0;
_ZTSN2nn3fnd17FrameHeapTemplateINS_2os10LockPolicy6NoLockEEE = 0x006a91fd;
_ZTIN2nn3fnd19IntrusiveLinkedListINS0_8HeapBaseEvE4ItemE = 0x0069ed00;
_ZTSN2nn3fnd19IntrusiveLinkedListINS0_8HeapBaseEvE4ItemE = 0x006a9236;
_ZTIN2nn3fnd19IntrusiveLinkedListINS_3srv19NotificationHandlerEvE4ItemE = 0x0069ed18;
_ZTSN2nn3fnd19IntrusiveLinkedListINS_3srv19NotificationHandlerEvE4ItemE = 0x006a926b;
_ZTIN2nn3fnd8HeapBaseE = 0x0069ed30;
_ZTSN2nn3fnd8HeapBaseE = 0x006a92af;
_ZTIN2nn3hid3CTR9GyroscopeE = 0x0069ed54;
_ZTSN2nn3hid3CTR9GyroscopeE = 0x006a92d8;
_ZTIN2nn3srv19NotificationHandlerE = 0x0069ed6c;
_ZTSN2nn3srv19NotificationHandlerE = 0x006a92f0;
_ZTIN3MSB11ObjSnowballE = 0x0069ef20;
_ZTSN3MSB11ObjSnowballE = 0x006a9831;
_ZTIN3MSB13ObjLuigiGroupE = 0x0069ef40;
_ZTSN3MSB13ObjLuigiGroupE = 0x006a9845;
_ZTIN3MSB6ObjMonE = 0x0069f04c;
_ZTSN3MSB6ObjMonE = 0x006a9aad;
_ZTIN3MSB8ObjLuigiE = 0x0069f074;
_ZTSN3MSB8ObjLuigiE = 0x006a9abb;
_ZTIN4__rw23__rw_numpunct_impl_dataIcEE = 0x0069f2cc;
_ZTSN4__rw23__rw_numpunct_impl_dataIcEE = 0x006aa236;
_ZTIN6BTLFLC11Task_TargetE = 0x0069f8b4;
_ZTSN6BTLFLC11Task_TargetE = 0x006ab1fd;
_ZTIN6BTLFLC16Task_GameManagerE = 0x0069f8e0;
_ZTSN6BTLFLC16Task_GameManagerE = 0x006ab22e;
_ZTIN6BTLFLC21Task_AttackTerminaterE = 0x0069f93c;
_ZTSN6BTLFLC21Task_AttackTerminaterE = 0x006ab2e7;
_ZTIN6BTLFLC7Task_MLE = 0x0069f9e8;
_ZTSN6BTLFLC7Task_MLE = 0x006ab49f;
_ZTIN6BTLFLC8Task_CamE = 0x0069fa14;
_ZTSN6BTLFLC8Task_CamE = 0x006ab4c4;
_ZTIN6BTLFLC8Task_FlcE = 0x0069fa34;
_ZTSN6BTLFLC8Task_FlcE = 0x006ab4d7;
_ZTIN8BtlAtkMD12StateDribbleE = 0x0069fdf0;
_ZTSN8BtlAtkMD12StateDribbleE = 0x006abf25;
_ZTIN8BtlAtkMD14StatePassShootE = 0x0069fe28;
_ZTSN8BtlAtkMD14StatePassShootE = 0x006abf76;
_ZTISt5ctypeIcE = 0x006a01b8;
_ZTSSt5ctypeIcE = 0x006acc24;
_ZTISt7codecvtIwcSt11__mbstate_tE = 0x006a01e0;
_ZTSSt7codecvtIwcSt11__mbstate_tE = 0x006acc30;
_ZTISt7collateIcE = 0x006a0200;
_ZTSSt7collateIcE = 0x006acc4e;
_ZTISt8messagesIcE = 0x006a0220;
_ZTSSt8messagesIcE = 0x006acc5c;
_ZTISt8numpunctIcE = 0x006a0240;
_ZTSSt8numpunctIcE = 0x006acc6b;

/* __cxxabiv1::__class_type_info */

_ZTI10FieldEvent = 0x0069b8bc;
_ZTS10FieldEvent = 0x006a03e3;
_ZTI10GimmickMan = 0x0069b924;
_ZTS10GimmickMan = 0x006a0458;
_ZTI10MemAlcBase = 0x0069b974;
_ZTS10MemAlcBase = 0x006a04b3;
_ZTI10ScriptUnit = 0x0069b9b8;
_ZTS10ScriptUnit = 0x006a0501;
_ZTI11BtlListBase = 0x0069b9fc;
_ZTS11BtlListBase = 0x006a0551;
_ZTI11FieldCAInfo = 0x0069bb24;
_ZTS11FieldCAInfo = 0x006a0776;
_ZTI11FieldCamera = 0x0069bb38;
_ZTS11FieldCamera = 0x006a0792;
_ZTI11FieldModule = 0x0069bb78;
_ZTS11FieldModule = 0x006a07ca;
_ZTI11FieldPlayer = 0x0069bb98;
_ZTS11FieldPlayer = 0x006a07f4;
_ZTI11GimmickTask = 0x0069bbac;
_ZTS11GimmickTask = 0x006a0810;
_ZTI11IDfxPrimMan = 0x0069bbcc;
_ZTS11IDfxPrimMan = 0x006a083a;
_ZTI11TaskListMan = 0x0069bbf8;
_ZTS11TaskListMan = 0x006a0872;
_ZTI11VramAlcBase = 0x0069bc0c;
_ZTS11VramAlcBase = 0x006a088e;
_ZTI12CrashRockMan = 0x0069bcc8;
_ZTS12CrashRockMan = 0x006a097d;
_ZTI12FieldChrBase = 0x0069bd2c;
_ZTS12FieldChrBase = 0x006a09e6;
_ZTI12FieldObjBase = 0x0069bd8c;
_ZTS12FieldObjBase = 0x006a0a31;
_ZTI12FieldShimmer = 0x0069bd94;
_ZTS12FieldShimmer = 0x006a0a40;
_ZTI12FieldSrtBase = 0x0069bd9c;
_ZTS12FieldSrtBase = 0x006a0a4f;
_ZTI12ScriptSystem = 0x0069be0c;
_ZTS12ScriptSystem = 0x006a0ac7;
_ZTI12clRfxSysBase = 0x0069be5c;
_ZTS12clRfxSysBase = 0x006a0b30;
_ZTI13BtlChrCmdBase = 0x0069be7c;
_ZTS13BtlChrCmdBase = 0x006a0b5f;
_ZTI13BtlChrDmgBase = 0x0069be84;
_ZTS13BtlChrDmgBase = 0x006a0b6f;
_ZTI13FieldGuideMap = 0x0069bf60;
_ZTS13FieldGuideMap = 0x006a0c7f;
_ZTI13FieldMainBase = 0x0069bf68;
_ZTS13FieldMainBase = 0x006a0c8f;
_ZTI13MessageWriter = 0x0069bfac;
_ZTS13MessageWriter = 0x006a0cef;
_ZTI14DLuigiPartTask = 0x0069c158;
_ZTS14DLuigiPartTask = 0x006a11b8;
_ZTI14IDfxSeCallBack = 0x0069c1b0;
_ZTS14IDfxSeCallBack = 0x006a121e;
_ZTI14IMiracleChrAct = 0x0069c1b8;
_ZTS14IMiracleChrAct = 0x006a122f;
_ZTI15MsgDataAcsrBase = 0x0069c2b0;
_ZTS15MsgDataAcsrBase = 0x006a13ae;
_ZTI15RenderQueueBase = 0x0069c2c4;
_ZTS15RenderQueueBase = 0x006a13d2;
_ZTI15yaLuigiBoxLocal = 0x0069c2d8;
_ZTS15yaLuigiBoxLocal = 0x006a13f6;
_ZTI17BtlMapDfxWrapBase = 0x0069c3b4;
_ZTS17BtlMapDfxWrapBase = 0x006a1525;
_ZTI17BtlMoveAttachBase = 0x0069c3d4;
_ZTS17BtlMoveAttachBase = 0x006a1561;
_ZTI17RenderDrawSysBase = 0x0069c468;
_ZTS17RenderDrawSysBase = 0x006a163d;
_ZTI19RealEventProgramAct = 0x0069c654;
_ZTS19RealEventProgramAct = 0x006a1c66;
_ZTI20RealEventProgramTask = 0x0069c6f0;
_ZTS20RealEventProgramTask = 0x006a1d4e;
_ZTI23FieldSaveExDataAcsrBase = 0x0069c7d0;
_ZTS23FieldSaveExDataAcsrBase = 0x006a1f23;
_ZTI3Job = 0x0069c930;
_ZTS3Job = 0x006a2270;
_ZTI4Task = 0x0069c944;
_ZTS4Task = 0x006a227b;
_ZTI5CtrFS = 0x0069c970;
_ZTS5CtrFS = 0x006a228f;
_ZTI5clRfx = 0x0069c9a8;
_ZTS5clRfx = 0x006a22ca;
_ZTI6DLuigi = 0x0069c9ec;
_ZTS6DLuigi = 0x006a22f9;
_ZTI6JobMan = 0x0069ca00;
_ZTS6JobMan = 0x006a2309;
_ZTI7BtlLink = 0x0069ca44;
_ZTS7BtlLink = 0x006a233a;
_ZTI7BtlMain = 0x0069ca4c;
_ZTS7BtlMain = 0x006a2343;
_ZTI7DfxUnit = 0x0069ca78;
_ZTS7DfxUnit = 0x006a2367;
_ZTI7FieldML = 0x0069cac4;
_ZTS7FieldML = 0x006a2394;
_ZTI7IMACtrl = 0x0069caf0;
_ZTS7IMACtrl = 0x006a23b8;
_ZTI8GXResCmn = 0x0069cbb8;
_ZTS8GXResCmn = 0x006a245b;
_ZTI8TaskList = 0x0069cc68;
_ZTS8TaskList = 0x006a24bf;
_ZTI8UICommon = 0x0069cc70;
_ZTS8UICommon = 0x006a24c9;
_ZTI9CellAnime = 0x0069ccb4;
_ZTS9CellAnime = 0x006a2509;
_ZTI9CtrModule = 0x0069ccd4;
_ZTS9CtrModule = 0x006a252a;
_ZTI9DLuigiCam = 0x0069ccf4;
_ZTS9DLuigiCam = 0x006a2540;
_ZTI9DreamGate = 0x0069cd08;
_ZTS9DreamGate = 0x006a2556;
_ZTI9GfxScnSys = 0x0069cd34;
_ZTS9GfxScnSys = 0x006a2582;
_ZTI9MoveFBase = 0x0069cd48;
_ZTS9MoveFBase = 0x006a2598;
_ZTI9MoveVBase = 0x0069cd50;
_ZTS9MoveVBase = 0x006a25a3;
_ZTI9MoveWorkF = 0x0069cd58;
_ZTS9MoveWorkF = 0x006a25ae;
_ZTI9ShadowSys = 0x0069cde0;
_ZTS9ShadowSys = 0x006a261c;
_ZTI9StdRender = 0x0069cdf4;
_ZTS9StdRender = 0x006a2632;
_ZTIN10BtlEndTask14BtlEndTaskBaseE = 0x0069cdfc;
_ZTSN10BtlEndTask14BtlEndTaskBaseE = 0x006a263d;
_ZTIN10KameckAtk44yaUt5StateINS_5BroomEEE = 0x0069ce34;
_ZTSN10KameckAtk44yaUt5StateINS_5BroomEEE = 0x006a26e5;
_ZTIN10KameckAtk44yaUt5StateINS_5MarioEEE = 0x0069ce3c;
_ZTSN10KameckAtk44yaUt5StateINS_5MarioEEE = 0x006a270b;
_ZTIN10KameckAtk44yaUt5StateINS_6AtkCmdEEE = 0x0069ce44;
_ZTSN10KameckAtk44yaUt5StateINS_6AtkCmdEEE = 0x006a2731;
_ZTIN10KameckAtk44yaUt5StateINS_6CameraEEE = 0x0069ce4c;
_ZTSN10KameckAtk44yaUt5StateINS_6CameraEEE = 0x006a2758;
_ZTIN10KameckAtk44yaUt5StateINS_6KameckEEE = 0x0069ce54;
_ZTSN10KameckAtk44yaUt5StateINS_6KameckEEE = 0x006a277f;
_ZTIN10KameckAtk44yaUt8LinkNodeE = 0x0069ce5c;
_ZTSN10KameckAtk44yaUt8LinkNodeE = 0x006a27a6;
_ZTIN11BtlTaskBase12CallbackBaseE = 0x0069d014;
_ZTSN11BtlTaskBase12CallbackBaseE = 0x006a2cd3;
_ZTIN11MDCHALLENGE4yaUt8LinkNodeE = 0x0069d040;
_ZTSN11MDCHALLENGE4yaUt8LinkNodeE = 0x006a2d4b;
_ZTIN11MDCHALLENGE7ITargetE = 0x0069d078;
_ZTSN11MDCHALLENGE7ITargetE = 0x006a2dea;
_ZTIN12FLCCHALLENGE15IObjStompTargetE = 0x0069d0a4;
_ZTSN12FLCCHALLENGE15IObjStompTargetE = 0x006a2e58;
_ZTIN12FLCCHALLENGE4yaUt8LinkNodeE = 0x0069d0e8;
_ZTSN12FLCCHALLENGE4yaUt8LinkNodeE = 0x006a2f38;
_ZTIN12FLCCHALLENGE5IItemE = 0x0069d0f0;
_ZTSN12FLCCHALLENGE5IItemE = 0x006a2f57;
_ZTIN12FLCCHALLENGE5ObjMLE = 0x0069d0f8;
_ZTSN12FLCCHALLENGE5ObjMLE = 0x006a2f6e;
_ZTIN12MRBCHALLENGE4yaUt5StateINS_10ObjBigRoseEEE = 0x0069d214;
_ZTSN12MRBCHALLENGE4yaUt5StateINS_10ObjBigRoseEEE = 0x006a32ca;
_ZTIN12MRBCHALLENGE4yaUt8LinkNodeE = 0x0069d21c;
_ZTSN12MRBCHALLENGE4yaUt8LinkNodeE = 0x006a32f8;
_ZTIN12MRBCHALLENGE8ItemBaseE = 0x0069d23c;
_ZTSN12MRBCHALLENGE8ItemBaseE = 0x006a334f;
_ZTIN12MRFCHALLENGE4yaUt5StateINS_6AtkCmdEEE = 0x0069d2a4;
_ZTSN12MRFCHALLENGE4yaUt5StateINS_6AtkCmdEEE = 0x006a348c;
_ZTIN12MRFCHALLENGE4yaUt8LinkNodeE = 0x0069d2ac;
_ZTSN12MRFCHALLENGE4yaUt8LinkNodeE = 0x006a34b5;
_ZTIN12MRJCHALLENGE13LuigiBoxWorld20AttachResultCallBackE = 0x0069d368;
_ZTSN12MRJCHALLENGE13LuigiBoxWorld20AttachResultCallBackE = 0x006a3745;
_ZTIN12MRJCHALLENGE4yaUt13CollisionFuncE = 0x0069d3a0;
_ZTSN12MRJCHALLENGE4yaUt13CollisionFuncE = 0x006a3816;
_ZTIN12MRJCHALLENGE4yaUt5StateINS_13LuigiBoxWorldEEE = 0x0069d3e4;
_ZTSN12MRJCHALLENGE4yaUt5StateINS_13LuigiBoxWorldEEE = 0x006a3921;
_ZTIN12MRJCHALLENGE4yaUt5StateINS_6AtkCmdEEE = 0x0069d3ec;
_ZTSN12MRJCHALLENGE4yaUt5StateINS_6AtkCmdEEE = 0x006a3952;
_ZTIN12MRJCHALLENGE4yaUt5StateINS_9ObjCameraEEE = 0x0069d3f4;
_ZTSN12MRJCHALLENGE4yaUt5StateINS_9ObjCameraEEE = 0x006a397b;
_ZTIN12MRJCHALLENGE4yaUt8LinkNodeE = 0x0069d3fc;
_ZTSN12MRJCHALLENGE4yaUt8LinkNodeE = 0x006a39a7;
_ZTIN12MRJCHALLENGE8BoxLocal11EventHandleE = 0x0069d44c;
_ZTSN12MRJCHALLENGE8BoxLocal11EventHandleE = 0x006a3aa1;
_ZTIN12MRJCHALLENGE8BoxLocalE = 0x0069d454;
_ZTSN12MRJCHALLENGE8BoxLocalE = 0x006a3ac8;
_ZTIN12MRJCHALLENGE8ItemBaseE = 0x0069d45c;
_ZTSN12MRJCHALLENGE8ItemBaseE = 0x006a3ae2;
_ZTIN12MRWCHALLENGE10EnemyGroup18IEnemyDeadCallBackE = 0x0069d4ac;
_ZTSN12MRWCHALLENGE10EnemyGroup18IEnemyDeadCallBackE = 0x006a3bc4;
_ZTIN12MRWCHALLENGE11ItemManager15IItemEffectTaskE = 0x0069d4b4;
_ZTSN12MRWCHALLENGE11ItemManager15IItemEffectTaskE = 0x006a3bf5;
_ZTIN12MRWCHALLENGE11ItemManager24IApplyItemEffectCallBackE = 0x0069d4bc;
_ZTSN12MRWCHALLENGE11ItemManager24IApplyItemEffectCallBackE = 0x006a3c24;
_ZTIN12MRWCHALLENGE4yaUt13CollisionFuncE = 0x0069d4f4;
_ZTSN12MRWCHALLENGE4yaUt13CollisionFuncE = 0x006a3ce8;
_ZTIN12MRWCHALLENGE4yaUt5StateINS_6AtkCmd10StateRallyEEE = 0x0069d520;
_ZTSN12MRWCHALLENGE4yaUt5StateINS_6AtkCmd10StateRallyEEE = 0x006a3d97;
_ZTIN12MRWCHALLENGE4yaUt5StateINS_6AtkCmdEEE = 0x0069d528;
_ZTSN12MRWCHALLENGE4yaUt5StateINS_6AtkCmdEEE = 0x006a3dcc;
_ZTIN12MRWCHALLENGE4yaUt8LinkNodeE = 0x0069d530;
_ZTSN12MRWCHALLENGE4yaUt8LinkNodeE = 0x006a3df5;
_ZTIN15AkmAtk4Relocate4yaUt5StateINS_14CmdStateEscapeEEE = 0x0069d700;
_ZTSN15AkmAtk4Relocate4yaUt5StateINS_14CmdStateEscapeEEE = 0x006a447f;
_ZTIN15AkmAtk4Relocate4yaUt5StateINS_14EscapeInternal8MarioObjEEE = 0x0069d708;
_ZTSN15AkmAtk4Relocate4yaUt5StateINS_14EscapeInternal8MarioObjEEE = 0x006a44b4;
_ZTIN15AkmAtk4Relocate4yaUt5StateINS_14EscapeInternal9AkkumuObjEEE = 0x0069d710;
_ZTSN15AkmAtk4Relocate4yaUt5StateINS_14EscapeInternal9AkkumuObjEEE = 0x006a44f2;
_ZTIN15AkmAtk4Relocate4yaUt5StateINS_16CmdStateMinigameEEE = 0x0069d718;
_ZTSN15AkmAtk4Relocate4yaUt5StateINS_16CmdStateMinigameEEE = 0x006a4531;
_ZTIN15AkmAtk4Relocate4yaUt5StateINS_6AtkCmdEEE = 0x0069d720;
_ZTSN15AkmAtk4Relocate4yaUt5StateINS_6AtkCmdEEE = 0x006a4568;
_ZTIN15AkmAtk4Relocate4yaUt8LinkNodeE = 0x0069d728;
_ZTSN15AkmAtk4Relocate4yaUt8LinkNodeE = 0x006a4594;
_ZTIN15AkmAtk4Relocate8IHoleObjE = 0x0069d748;
_ZTSN15AkmAtk4Relocate8IHoleObjE = 0x006a45ed;
_ZTIN16Btl_AtkHaneruMet9BAMonSoloE = 0x0069d984;
_ZTSN16Btl_AtkHaneruMet9BAMonSoloE = 0x006a4df9;
_ZTIN17Btl_AtkStarRocket8BAPcSoloE = 0x0069da4c;
_ZTSN17Btl_AtkStarRocket8BAPcSoloE = 0x006a50b7;
_ZTIN17Btl_AtkStarRocket9BAMonSoloE = 0x0069da60;
_ZTSN17Btl_AtkStarRocket9BAMonSoloE = 0x006a50f5;
_ZTIN17Btl_AtkStarRocket9BAMonTeamE = 0x0069da68;
_ZTSN17Btl_AtkStarRocket9BAMonTeamE = 0x006a5115;
_ZTIN17Btl_AtkTaruTaihou7BAPcObjE = 0x0069db6c;
_ZTSN17Btl_AtkTaruTaihou7BAPcObjE = 0x006a54ec;
_ZTIN17Btl_AtkTaruTaihou9BAMonSoloE = 0x0069db8c;
_ZTSN17Btl_AtkTaruTaihou9BAMonSoloE = 0x006a5547;
_ZTIN18Btl_AtkFuechauBall10CommonDataE = 0x0069dbc4;
_ZTSN18Btl_AtkFuechauBall10CommonDataE = 0x006a55ea;
_ZTIN18Btl_AtkFuechauBall8BAPcSoloE = 0x0069dca4;
_ZTSN18Btl_AtkFuechauBall8BAPcSoloE = 0x006a5934;
_ZTIN18Btl_AtkFuechauBall8BAPcTeamE = 0x0069dcac;
_ZTSN18Btl_AtkFuechauBall8BAPcTeamE = 0x006a5954;
_ZTIN18Btl_AtkFuechauBall9BABallSetE = 0x0069dcb4;
_ZTSN18Btl_AtkFuechauBall9BABallSetE = 0x006a5974;
_ZTIN18Btl_AtkFuechauBall9BAMonTeamE = 0x0069dcc8;
_ZTSN18Btl_AtkFuechauBall9BAMonTeamE = 0x006a59b6;
_ZTIN18Btl_AtkRocketBoard9BAMonSolo7UpdaterE = 0x0069ddb4;
_ZTSN18Btl_AtkRocketBoard9BAMonSolo7UpdaterE = 0x006a5d79;
_ZTIN18Btl_AtkRocketBoard9BAMonSoloE = 0x0069ddbc;
_ZTSN18Btl_AtkRocketBoard9BAMonSoloE = 0x006a5da2;
_ZTIN19Btl_AtkBaibaiFlower8BAPcSoloE = 0x0069deb4;
_ZTSN19Btl_AtkBaibaiFlower8BAPcSoloE = 0x006a618c;
_ZTIN19Btl_AtkBaibaiFlower9BAMonSoloE = 0x0069dec8;
_ZTSN19Btl_AtkBaibaiFlower9BAMonSoloE = 0x006a61e0;
_ZTIN19Btl_AtkBaibaiTaihou8BAPcSoloE = 0x0069dfb4;
_ZTSN19Btl_AtkBaibaiTaihou8BAPcSoloE = 0x006a6578;
_ZTIN19Btl_AtkBaibaiTaihou9BAMonSoloE = 0x0069dfbc;
_ZTSN19Btl_AtkBaibaiTaihou9BAMonSoloE = 0x006a6599;
_ZTIN20Btl_AtkAchichiFlower7BASceneE = 0x0069e0c0;
_ZTSN20Btl_AtkAchichiFlower7BASceneE = 0x006a6981;
_ZTIN20Btl_AtkSnipePachinko9BAMonSoloE = 0x0069e1b8;
_ZTSN20Btl_AtkSnipePachinko9BAMonSoloE = 0x006a6d49;
_ZTIN26Btl_AtkStarRocketChallenge8BAPcSoloE = 0x0069e280;
_ZTSN26Btl_AtkStarRocketChallenge8BAPcSoloE = 0x006a708a;
_ZTIN27Btl_AtkFuechauBallChallenge10CommonDataE = 0x0069e2a0;
_ZTSN27Btl_AtkFuechauBallChallenge10CommonDataE = 0x006a7106;
_ZTIN27Btl_AtkFuechauBallChallenge8BAPcSoloE = 0x0069e398;
_ZTSN27Btl_AtkFuechauBallChallenge8BAPcSoloE = 0x006a757b;
_ZTIN27Btl_AtkFuechauBallChallenge8BAPcTeamE = 0x0069e3a0;
_ZTSN27Btl_AtkFuechauBallChallenge8BAPcTeamE = 0x006a75a4;
_ZTIN27Btl_AtkFuechauBallChallenge9BABallSetE = 0x0069e3a8;
_ZTSN27Btl_AtkFuechauBallChallenge9BABallSetE = 0x006a75cd;
_ZTIN27Btl_AtkFuechauBallChallenge9BAMonTeamE = 0x0069e3bc;
_ZTSN27Btl_AtkFuechauBallChallenge9BAMonTeamE = 0x006a7621;
_ZTIN28Btl_AtkBaibaiTaihouChallenge8BAPcSoloE = 0x0069e4b4;
_ZTSN28Btl_AtkBaibaiTaihouChallenge8BAPcSoloE = 0x006a7a90;
_ZTIN28Btl_AtkBaibaiTaihouChallenge9BAMonSoloE = 0x0069e4bc;
_ZTSN28Btl_AtkBaibaiTaihouChallenge9BAMonSoloE = 0x006a7aba;
_ZTIN29Btl_AtkSnipePachinkoChallenge9BAMonSoloE = 0x0069e68c;
_ZTSN29Btl_AtkSnipePachinkoChallenge9BAMonSoloE = 0x006a8309;
_ZTIN2MB4yaUt13CollisionFuncE = 0x0069e6f4;
_ZTSN2MB4yaUt13CollisionFuncE = 0x006a83ff;
_ZTIN2MB4yaUt7ObjBaseE = 0x0069e738;
_ZTSN2MB4yaUt7ObjBaseE = 0x006a84cd;
_ZTIN2MB4yaUt8LinkNodeE = 0x0069e740;
_ZTSN2MB4yaUt8LinkNodeE = 0x006a84e0;
_ZTIN2MF4yaUt7ObjBaseE = 0x0069e7f0;
_ZTSN2MF4yaUt7ObjBaseE = 0x006a8679;
_ZTIN2MF4yaUt8LinkNodeE = 0x0069e7f8;
_ZTSN2MF4yaUt8LinkNodeE = 0x006a868c;
_ZTIN2MH4yaUt5StateINS_11LuigiHammerEEE = 0x0069e8f0;
_ZTSN2MH4yaUt5StateINS_11LuigiHammerEEE = 0x006a88cc;
_ZTIN2MH4yaUt5StateINS_6ObjCamEEE = 0x0069e8f8;
_ZTSN2MH4yaUt5StateINS_6ObjCamEEE = 0x006a88f0;
_ZTIN2MH4yaUt5StateINS_8ObjMario11MarioHammerEEE = 0x0069e900;
_ZTSN2MH4yaUt5StateINS_8ObjMario11MarioHammerEEE = 0x006a890e;
_ZTIN2MH4yaUt5StateINS_8ObjMario4MoveEEE = 0x0069e908;
_ZTSN2MH4yaUt5StateINS_8ObjMario4MoveEEE = 0x006a893b;
_ZTIN2MH4yaUt7ObjBaseE = 0x0069e910;
_ZTSN2MH4yaUt7ObjBaseE = 0x006a8960;
_ZTIN2MH4yaUt8LinkNodeE = 0x0069e918;
_ZTSN2MH4yaUt8LinkNodeE = 0x006a8973;
_ZTIN2MT4yaUt8LinkNodeE = 0x0069ea78;
_ZTSN2MT4yaUt8LinkNodeE = 0x006a8cea;
_ZTIN2nn2fs13IPositionableE = 0x0069eae4;
_ZTSN2nn2fs13IPositionableE = 0x006a8d60;
_ZTIN2nn2fs3CTR6MPCore6detail10IDirectoryE = 0x0069eb14;
_ZTSN2nn2fs3CTR6MPCore6detail10IDirectoryE = 0x006a8d92;
_ZTIN2nn2fs3CTR6MPCore6detail5IFileE = 0x0069ebac;
_ZTSN2nn2fs3CTR6MPCore6detail5IFileE = 0x006a8f0c;
_ZTIN2nn2fs3CTR6MPCore6detail8IArchiveE = 0x0069ebb4;
_ZTSN2nn2fs3CTR6MPCore6detail8IArchiveE = 0x006a8f2d;
_ZTIN2nn2os10LockPolicy6NoLock10LockObjectE = 0x0069ec00;
_ZTSN2nn2os10LockPolicy6NoLock10LockObjectE = 0x006a8f99;
_ZTIN2nn2os10LockPolicy6ObjectINS0_15CriticalSectionEE10LockObjectE = 0x0069ec08;
_ZTSN2nn2os10LockPolicy6ObjectINS0_15CriticalSectionEE10LockObjectE = 0x006a8fc1;
_ZTIN2nn2os16AutoStackManagerE = 0x0069ec40;
_ZTSN2nn2os16AutoStackManagerE = 0x006a9046;
_ZTIN2nn2ro6Module17EnumerateCallbackE = 0x0069ec60;
_ZTSN2nn2ro6Module17EnumerateCallbackE = 0x006a9084;
_ZTIN2nn3fnd10IAllocatorE = 0x0069ec68;
_ZTSN2nn3fnd10IAllocatorE = 0x006a90a7;
_ZTIN2nn3ssl6detail10LibManagerE = 0x0069ed90;
_ZTSN2nn3ssl6detail10LibManagerE = 0x006a934c;
_ZTIN2nn4font4FontE = 0x0069eda4;
_ZTSN2nn4font4FontE = 0x006a9381;
_ZTIN2nn4util11ADLFireWall11NonCopyableINS_2fs10FileStreamEEE = 0x0069edb8;
_ZTSN2nn4util11ADLFireWall11NonCopyableINS_2fs10FileStreamEEE = 0x006a93a4;
_ZTIN2nn4util11ADLFireWall11NonCopyableINS_2fs15FileInputStreamEEE = 0x0069edc0;
_ZTSN2nn4util11ADLFireWall11NonCopyableINS_2fs15FileInputStreamEEE = 0x006a93de;
_ZTIN2nn4util11ADLFireWall11NonCopyableINS_2fs6detail12FileBaseImplEEE = 0x0069edc8;
_ZTSN2nn4util11ADLFireWall11NonCopyableINS_2fs6detail12FileBaseImplEEE = 0x006a941d;
_ZTIN2nn4util11ADLFireWall11NonCopyableINS_2os12HandleObjectEEE = 0x0069edd0;
_ZTSN2nn4util11ADLFireWall11NonCopyableINS_2os12HandleObjectEEE = 0x006a9460;
_ZTIN2nn4util11ADLFireWall11NonCopyableINS_3fnd19IntrusiveLinkedListINS3_8HeapBaseEvE4ItemEEE = 0x0069edd8;
_ZTSN2nn4util11ADLFireWall11NonCopyableINS_3fnd19IntrusiveLinkedListINS3_8HeapBaseEvE4ItemEEE = 0x006a949c;
_ZTIN2nn4util11ADLFireWall11NonCopyableINS_3fnd19IntrusiveLinkedListINS_3srv19NotificationHandlerEvE4ItemEEE = 0x0069ede0;
_ZTSN2nn4util11ADLFireWall11NonCopyableINS_3fnd19IntrusiveLinkedListINS_3srv19NotificationHandlerEvE4ItemEEE = 0x006a94f6;
_ZTIN2nn6crypto15HashContextBaseE = 0x0069edf4;
_ZTSN2nn6crypto15HashContextBaseE = 0x006a957b;
_ZTIN2nw2os10IAllocatorE = 0x0069ee08;
_ZTSN2nw2os10IAllocatorE = 0x006a95bd;
_ZTIN2nw3lyt13AnimTransformE = 0x0069ee10;
_ZTSN2nw3lyt13AnimTransformE = 0x006a95d2;
_ZTIN2nw3lyt16ResourceAccessorE = 0x0069ee18;
_ZTSN2nw3lyt16ResourceAccessorE = 0x006a95eb;
_ZTIN2nw3lyt5GroupE = 0x0069ee44;
_ZTSN2nw3lyt5GroupE = 0x006a9653;
_ZTIN2nw3lyt6LayoutE = 0x0069ee58;
_ZTSN2nw3lyt6LayoutE = 0x006a9674;
_ZTIN2nw3lyt8DrawInfoE = 0x0069ee90;
_ZTSN2nw3lyt8DrawInfoE = 0x006a96cd;
_ZTIN2nw3lyt8MaterialE = 0x0069ee98;
_ZTSN2nw3lyt8MaterialE = 0x006a96e0;
_ZTIN2nw3lyt8internal8PaneBaseE = 0x0069eea0;
_ZTSN2nw3lyt8internal8PaneBaseE = 0x006a96f3;
_ZTIN2nw4font10RectDrawerE = 0x0069eea8;
_ZTSN2nw4font10RectDrawerE = 0x006a970f;
_ZTIN2nw4font16TagProcessorBaseIcEE = 0x0069eebc;
_ZTSN2nw4font16TagProcessorBaseIcEE = 0x006a973e;
_ZTIN2nw4font16TagProcessorBaseIwEE = 0x0069eec4;
_ZTSN2nw4font16TagProcessorBaseIwEE = 0x006a975e;
_ZTIN2nw4font4FontE = 0x0069eecc;
_ZTSN2nw4font4FontE = 0x006a977e;
_ZTIN3Btl10HandleTmplI10BtlDfxUnitEE = 0x0069eee0;
_ZTSN3Btl10HandleTmplI10BtlDfxUnitEE = 0x006a97a1;
_ZTIN3Btl10HandleTmplI10BtlSndTaskEE = 0x0069eee8;
_ZTSN3Btl10HandleTmplI10BtlSndTaskEE = 0x006a97c2;
_ZTIN3MSB17CamFollowBehaviorE = 0x0069ef78;
_ZTSN3MSB17CamFollowBehaviorE = 0x006a988a;
_ZTIN3MSB4yaUt13CollisionFuncE = 0x0069efc8;
_ZTSN3MSB4yaUt13CollisionFuncE = 0x006a9942;
_ZTIN3MSB4yaUt7ObjBaseE = 0x0069f024;
_ZTSN3MSB4yaUt7ObjBaseE = 0x006a9a60;
_ZTIN3MSB4yaUt8LinkNodeE = 0x0069f02c;
_ZTSN3MSB4yaUt8LinkNodeE = 0x006a9a74;
_ZTIN4Adsl8Internal15SharedCountBaseE = 0x0069f178;
_ZTSN4Adsl8Internal15SharedCountBaseE = 0x006a9ef6;
_ZTIN4Bomb6IStateE = 0x0069f1a4;
_ZTSN4Bomb6IStateE = 0x006a9f3e;
_ZTIN4UITM4yaUt8LinkNodeE = 0x0069f254;
_ZTSN4UITM4yaUt8LinkNodeE = 0x006aa106;
_ZTIN4__rw15__rw_punct_dataIcEE = 0x0069f28c;
_ZTSN4__rw15__rw_punct_dataIcEE = 0x006aa165;
_ZTIN4__rw17__rw_collate_dataIcEE = 0x0069f294;
_ZTSN4__rw17__rw_collate_dataIcEE = 0x006aa181;
_ZTIN4__rw17__rw_ctype_helperIcEE = 0x0069f2a8;
_ZTSN4__rw17__rw_ctype_helperIcEE = 0x006aa1bd;
_ZTIN4__rw17__rw_synchronizedE = 0x0069f2b0;
_ZTSN4__rw17__rw_synchronizedE = 0x006aa1db;
_ZTIN4__rw23__rw_numpunct_impl_baseE = 0x0069f2c4;
_ZTSN4__rw23__rw_numpunct_impl_baseE = 0x006aa215;
_ZTIN4adsl3gfx9GfxObjectE = 0x0069f550;
_ZTSN4adsl3gfx9GfxObjectE = 0x006aa849;
_ZTIN4adsl4anim10AnimResultE = 0x0069f564;
_ZTSN4adsl4anim10AnimResultE = 0x006aa875;
_ZTIN4adsl4anim11AnimBlendOpE = 0x0069f56c;
_ZTSN4adsl4anim11AnimBlendOpE = 0x006aa88e;
_ZTIN4adsl4anim19AnimFrameControllerE = 0x0069f5bc;
_ZTSN4adsl4anim19AnimFrameControllerE = 0x006aa965;
_ZTIN4adsl4anim9AnimFrameE = 0x0069f5d0;
_ZTSN4adsl4anim9AnimFrameE = 0x006aa9aa;
_ZTIN4yaUt14IMsgReceivableE = 0x0069f5d8;
_ZTSN4yaUt14IMsgReceivableE = 0x006aa9c1;
_ZTIN4yaUt16IBtlAtkStateTmplI13BtlAtkMJLuigiEE = 0x0069f5ec;
_ZTSN4yaUt16IBtlAtkStateTmplI13BtlAtkMJLuigiEE = 0x006aa9f2;
_ZTIN4yaUt16IBtlAtkStateTmplI13BtlAtkMJMarioEE = 0x0069f5f4;
_ZTSN4yaUt16IBtlAtkStateTmplI13BtlAtkMJMarioEE = 0x006aaa1d;
_ZTIN4yaUt16IBtlAtkStateTmplI15yaLuigiBoxWorldEE = 0x0069f5fc;
_ZTSN4yaUt16IBtlAtkStateTmplI15yaLuigiBoxWorldEE = 0x006aaa48;
_ZTIN4yaUt16IBtlAtkStateTmplI19BtlPcAtkMidoriKouraEE = 0x0069f604;
_ZTSN4yaUt16IBtlAtkStateTmplI19BtlPcAtkMidoriKouraEE = 0x006aaa75;
_ZTIN4yaUt16IBtlAtkStateTmplI19BtlPcAtkMiracleBallEE = 0x0069f60c;
_ZTSN4yaUt16IBtlAtkStateTmplI19BtlPcAtkMiracleBallEE = 0x006aaaa6;
_ZTIN4yaUt16IBtlAtkStateTmplI22BtlPcAtkMiracleTornadoEE = 0x0069f614;
_ZTSN4yaUt16IBtlAtkStateTmplI22BtlPcAtkMiracleTornadoEE = 0x006aaad7;
_ZTIN4yaUt16IBtlAtkStateTmplI7BtlMDPCEE = 0x0069f61c;
_ZTSN4yaUt16IBtlAtkStateTmplI7BtlMDPCEE = 0x006aab0b;
_ZTIN4yaUt16IBtlAtkStateTmplIN11MDCHALLENGE6AtkCmdEEE = 0x0069f624;
_ZTSN4yaUt16IBtlAtkStateTmplIN11MDCHALLENGE6AtkCmdEEE = 0x006aab2f;
_ZTIN4yaUt16IBtlAtkStateTmplIN12FLCCHALLENGE6AtkCmdEEE = 0x0069f62c;
_ZTSN4yaUt16IBtlAtkStateTmplIN12FLCCHALLENGE6AtkCmdEEE = 0x006aab61;
_ZTIN4yaUt16IBtlAtkStateTmplIN12MRBCHALLENGE6AtkCmdEEE = 0x0069f634;
_ZTSN4yaUt16IBtlAtkStateTmplIN12MRBCHALLENGE6AtkCmdEEE = 0x006aab94;
_ZTIN4yaUt16IBtlAtkStateTmplIN2MF19BtlPcAtkMiracleFireEEE = 0x0069f63c;
_ZTSN4yaUt16IBtlAtkStateTmplIN2MF19BtlPcAtkMiracleFireEEE = 0x006aabc7;
_ZTIN4yaUt16IBtlAtkStateTmplIN2MH6AtkCmdEEE = 0x0069f644;
_ZTSN4yaUt16IBtlAtkStateTmplIN2MH6AtkCmdEEE = 0x006aabfd;
_ZTIN4yaUt16IBtlAtkStateTmplIN3MSB23BtlPcAtkMiracleSnowballEEE = 0x0069f64c;
_ZTSN4yaUt16IBtlAtkStateTmplIN3MSB23BtlPcAtkMiracleSnowballEEE = 0x006aac25;
_ZTIN4yaUt21IBtlStateAccessorTmplI6BtlChrEE = 0x0069f66c;
_ZTSN4yaUt21IBtlStateAccessorTmplI6BtlChrEE = 0x006aacc6;
_ZTIN4yaUt21IBtlStateAccessorTmplI7BtlMDPCEE = 0x0069f674;
_ZTSN4yaUt21IBtlStateAccessorTmplI7BtlMDPCEE = 0x006aacee;
_ZTIN4yaUt5ITaskE = 0x0069f67c;
_ZTSN4yaUt5ITaskE = 0x006aad17;
_ZTIN5BTLMJ4yaUt8LinkNodeE = 0x0069f6f0;
_ZTSN5BTLMJ4yaUt8LinkNodeE = 0x006aae6b;
_ZTIN5Badge11DfxWrapBaseE = 0x0069f734;
_ZTSN5Badge11DfxWrapBaseE = 0x006aaeee;
_ZTIN5Badge18ChgScrCallbackBaseE = 0x0069f7d8;
_ZTSN5Badge18ChgScrCallbackBaseE = 0x006ab039;
_ZTIN5Badge24ExecBadgeEffCallbackBaseE = 0x0069f7e0;
_ZTSN5Badge24ExecBadgeEffCallbackBaseE = 0x006ab056;
_ZTIN6BTLFLC4yaUt8LinkNodeE = 0x0069f9e0;
_ZTSN6BTLFLC4yaUt8LinkNodeE = 0x006ab487;
_ZTIN6hoUtil12hoRefCounterE = 0x0069fa78;
_ZTSN6hoUtil12hoRefCounterE = 0x006ab536;
_ZTIN6hoUtil14hoPrimRendererE = 0x0069fa80;
_ZTSN6hoUtil14hoPrimRendererE = 0x006ab54e;
_ZTIN6hoUtil16hoQuadTreeObjectE = 0x0069fa94;
_ZTSN6hoUtil16hoQuadTreeObjectE = 0x006ab583;
_ZTIN6hoUtil20hoListableObjectBaseE = 0x0069fa9c;
_ZTSN6hoUtil20hoListableObjectBaseE = 0x006ab59f;
_ZTIN7AkmAtk44yaUt5StateINS_14CmdStateEscapeEEE = 0x0069fb7c;
_ZTSN7AkmAtk44yaUt5StateINS_14CmdStateEscapeEEE = 0x006ab861;
_ZTIN7AkmAtk44yaUt5StateINS_14EscapeInternal8MarioObjEEE = 0x0069fb84;
_ZTSN7AkmAtk44yaUt5StateINS_14EscapeInternal8MarioObjEEE = 0x006ab88d;
_ZTIN7AkmAtk44yaUt5StateINS_14EscapeInternal9AkkumuObjEEE = 0x0069fb8c;
_ZTSN7AkmAtk44yaUt5StateINS_14EscapeInternal9AkkumuObjEEE = 0x006ab8c2;
_ZTIN7AkmAtk44yaUt5StateINS_16CmdStateMinigameEEE = 0x0069fb94;
_ZTSN7AkmAtk44yaUt5StateINS_16CmdStateMinigameEEE = 0x006ab8f8;
_ZTIN7AkmAtk44yaUt5StateINS_6AtkCmdEEE = 0x0069fb9c;
_ZTSN7AkmAtk44yaUt5StateINS_6AtkCmdEEE = 0x006ab926;
_ZTIN7AkmAtk44yaUt8LinkNodeE = 0x0069fba4;
_ZTSN7AkmAtk44yaUt8LinkNodeE = 0x006ab949;
_ZTIN7AkmAtk48IHoleObjE = 0x0069fbc4;
_ZTSN7AkmAtk48IHoleObjE = 0x006ab987;
_ZTIN8BETPcWin5SceneE = 0x0069fdc4;
_ZTSN8BETPcWin5SceneE = 0x006abecf;
_ZTIN8REDSPARK2Sd10RSTrackManE = 0x0069fea8;
_ZTSN8REDSPARK2Sd10RSTrackManE = 0x006ac08e;
_ZTIN8REDSPARK2Sd10RSVoiceManE = 0x0069feb0;
_ZTSN8REDSPARK2Sd10RSVoiceManE = 0x006ac0a9;
_ZTIN8REDSPARK2Sd7RSSoundE = 0x0069feb8;
_ZTSN8REDSPARK2Sd7RSSoundE = 0x006ac0c4;
_ZTIN8REDSPARK2Sd8RSMemoryE = 0x0069fec0;
_ZTSN8REDSPARK2Sd8RSMemoryE = 0x006ac0db;
_ZTIN8REDSPARK2Sd9RSDataManE = 0x0069fec8;
_ZTSN8REDSPARK2Sd9RSDataManE = 0x006ac0f3;
_ZTIN9hoBtlUtil12BtlSlotTimerE = 0x0069fef4;
_ZTSN9hoBtlUtil12BtlSlotTimerE = 0x006ac15a;
_ZTIN9hoBtlUtil12hoGyroStatusE = 0x0069fefc;
_ZTSN9hoBtlUtil12hoGyroStatusE = 0x006ac175;
_ZTIN9hoBtlUtil15hoBtlSlotDigitsE = 0x0069ff40;
_ZTSN9hoBtlUtil15hoBtlSlotDigitsE = 0x006ac224;
_ZTIN9hoBtlUtil16BtlScoreCountObj17UpdaterScorePopupE = 0x0069ff48;
_ZTSN9hoBtlUtil16BtlScoreCountObj17UpdaterScorePopupE = 0x006ac242;
_ZTIN9hoBtlUtil26BtlSlotTimerObjForMinigame17UpdaterTimerPopupE = 0x006a00c4;
_ZTSN9hoBtlUtil26BtlSlotTimerObjForMinigame17UpdaterTimerPopupE = 0x006ac929;
_ZTIN9hoBtlUtil9hoUpdaterE = 0x006a0150;
_ZTSN9hoBtlUtil9hoUpdaterE = 0x006acb4f;
_ZTISt10ctype_base = 0x006a0164;
_ZTSSt10ctype_base = 0x006acb78;
_ZTISt12codecvt_base = 0x006a016c;
_ZTSSt12codecvt_base = 0x006acb87;
_ZTISt13messages_base = 0x006a0180;
_ZTSSt13messages_base = 0x006acbac;
